
Smart_Home_G2.elf:     file format elf32-littlearm

Sections:
Idx Name          Size      VMA       LMA       File off  Algn
  0 .isr_vector   00000194  08000000  08000000  00010000  2**0
                  CONTENTS, ALLOC, LOAD, READONLY, DATA
  1 .text         0000171c  08000194  08000194  00010194  2**2
                  CONTENTS, ALLOC, LOAD, READONLY, CODE
  2 .rodata       0002a344  080018b0  080018b0  000118b0  2**1
                  CONTENTS, ALLOC, LOAD, READONLY, DATA
  3 .ARM.extab    00000000  0802bbf4  0802bbf4  00041364  2**0
                  CONTENTS
  4 .ARM          00000000  0802bbf4  0802bbf4  00041364  2**0
                  CONTENTS
  5 .preinit_array 00000000  0802bbf4  0802bbf4  00041364  2**0
                  CONTENTS, ALLOC, LOAD, DATA
  6 .init_array   00000004  0802bbf4  0802bbf4  0003bbf4  2**2
                  CONTENTS, ALLOC, LOAD, DATA
  7 .fini_array   00000004  0802bbf8  0802bbf8  0003bbf8  2**2
                  CONTENTS, ALLOC, LOAD, DATA
  8 .data         00001364  20000000  0802bbfc  00040000  2**1
                  CONTENTS, ALLOC, LOAD, DATA
  9 .bss          000000e8  20001364  0802cf60  00041364  2**2
                  ALLOC
 10 ._user_heap_stack 00000604  2000144c  0802cf60  0004144c  2**0
                  ALLOC
 11 .ARM.attributes 00000030  00000000  00000000  00041364  2**0
                  CONTENTS, READONLY
 12 .comment      00000050  00000000  00000000  00041394  2**0
                  CONTENTS, READONLY
 13 .debug_frame  0000002c  00000000  00000000  000413e4  2**2
                  CONTENTS, READONLY, DEBUGGING, OCTETS

Disassembly of section .text:

08000194 <__do_global_dtors_aux>:
 8000194:	b510      	push	{r4, lr}
 8000196:	4c05      	ldr	r4, [pc, #20]	; (80001ac <__do_global_dtors_aux+0x18>)
 8000198:	7823      	ldrb	r3, [r4, #0]
 800019a:	b933      	cbnz	r3, 80001aa <__do_global_dtors_aux+0x16>
 800019c:	4b04      	ldr	r3, [pc, #16]	; (80001b0 <__do_global_dtors_aux+0x1c>)
 800019e:	b113      	cbz	r3, 80001a6 <__do_global_dtors_aux+0x12>
 80001a0:	4804      	ldr	r0, [pc, #16]	; (80001b4 <__do_global_dtors_aux+0x20>)
 80001a2:	f3af 8000 	nop.w
 80001a6:	2301      	movs	r3, #1
 80001a8:	7023      	strb	r3, [r4, #0]
 80001aa:	bd10      	pop	{r4, pc}
 80001ac:	20001364 	.word	0x20001364
 80001b0:	00000000 	.word	0x00000000
 80001b4:	08001898 	.word	0x08001898

080001b8 <frame_dummy>:
 80001b8:	b508      	push	{r3, lr}
 80001ba:	4b03      	ldr	r3, [pc, #12]	; (80001c8 <frame_dummy+0x10>)
 80001bc:	b11b      	cbz	r3, 80001c6 <frame_dummy+0xe>
 80001be:	4903      	ldr	r1, [pc, #12]	; (80001cc <frame_dummy+0x14>)
 80001c0:	4803      	ldr	r0, [pc, #12]	; (80001d0 <frame_dummy+0x18>)
 80001c2:	f3af 8000 	nop.w
 80001c6:	bd08      	pop	{r3, pc}
 80001c8:	00000000 	.word	0x00000000
 80001cc:	20001368 	.word	0x20001368
 80001d0:	08001898 	.word	0x08001898

080001d4 <AC_On>:
 80001d4:	2201      	movs	r2, #1
 80001d6:	2108      	movs	r1, #8
 80001d8:	2003      	movs	r0, #3
 80001da:	f000 b967 	b.w	80004ac <GPIO_vWritePinValue>

080001de <AC_Off>:
 80001de:	2200      	movs	r2, #0
 80001e0:	2108      	movs	r1, #8
 80001e2:	2003      	movs	r0, #3
 80001e4:	f000 b962 	b.w	80004ac <GPIO_vWritePinValue>

080001e8 <AC_Init>:
 80001e8:	b508      	push	{r3, lr}
 80001ea:	2108      	movs	r1, #8
 80001ec:	2003      	movs	r0, #3
 80001ee:	f000 fc3d 	bl	8000a6c <RCC_vEnableClock>
 80001f2:	2203      	movs	r2, #3
 80001f4:	2101      	movs	r1, #1
 80001f6:	2000      	movs	r0, #0
 80001f8:	f000 f8cc 	bl	8000394 <GPIO_vSetMode>
 80001fc:	2201      	movs	r2, #1
 80001fe:	2108      	movs	r1, #8
 8000200:	2003      	movs	r0, #3
 8000202:	f000 f8c7 	bl	8000394 <GPIO_vSetMode>
 8000206:	f000 f819 	bl	800023c <ADC_Init>
 800020a:	4a06      	ldr	r2, [pc, #24]	; (8000224 <AC_Init+0x3c>)
 800020c:	4906      	ldr	r1, [pc, #24]	; (8000228 <AC_Init+0x40>)
 800020e:	4807      	ldr	r0, [pc, #28]	; (800022c <AC_Init+0x44>)
 8000210:	f000 f82a 	bl	8000268 <ADC_AdjustValue>
 8000214:	2012      	movs	r0, #18
 8000216:	f000 fbff 	bl	8000a18 <NVIC_EnableIRQ>
 800021a:	e8bd 4008 	ldmia.w	sp!, {r3, lr}
 800021e:	f000 b837 	b.w	8000290 <ADC_Start>
 8000222:	bf00      	nop
 8000224:	080001df 	.word	0x080001df
 8000228:	080001d5 	.word	0x080001d5
 800022c:	20001380 	.word	0x20001380

08000230 <AC_AdjustTemperature>:
 8000230:	4b01      	ldr	r3, [pc, #4]	; (8000238 <AC_AdjustTemperature+0x8>)
 8000232:	7018      	strb	r0, [r3, #0]
 8000234:	4770      	bx	lr
 8000236:	bf00      	nop
 8000238:	20001380 	.word	0x20001380

0800023c <ADC_Init>:
 800023c:	4b08      	ldr	r3, [pc, #32]	; (8000260 <ADC_Init+0x24>)
 800023e:	685a      	ldr	r2, [r3, #4]
 8000240:	f042 0220 	orr.w	r2, r2, #32
 8000244:	605a      	str	r2, [r3, #4]
 8000246:	2200      	movs	r2, #0
 8000248:	62da      	str	r2, [r3, #44]	; 0x2c
 800024a:	6b5a      	ldr	r2, [r3, #52]	; 0x34
 800024c:	f042 0201 	orr.w	r2, r2, #1
 8000250:	635a      	str	r2, [r3, #52]	; 0x34
 8000252:	4a04      	ldr	r2, [pc, #16]	; (8000264 <ADC_Init+0x28>)
 8000254:	6853      	ldr	r3, [r2, #4]
 8000256:	f043 0303 	orr.w	r3, r3, #3
 800025a:	6053      	str	r3, [r2, #4]
 800025c:	4770      	bx	lr
 800025e:	bf00      	nop
 8000260:	40012000 	.word	0x40012000
 8000264:	40012300 	.word	0x40012300

08000268 <ADC_AdjustValue>:
 8000268:	b149      	cbz	r1, 800027e <ADC_AdjustValue+0x16>
 800026a:	b142      	cbz	r2, 800027e <ADC_AdjustValue+0x16>
 800026c:	4b04      	ldr	r3, [pc, #16]	; (8000280 <ADC_AdjustValue+0x18>)
 800026e:	6019      	str	r1, [r3, #0]
 8000270:	4b04      	ldr	r3, [pc, #16]	; (8000284 <ADC_AdjustValue+0x1c>)
 8000272:	601a      	str	r2, [r3, #0]
 8000274:	4b04      	ldr	r3, [pc, #16]	; (8000288 <ADC_AdjustValue+0x20>)
 8000276:	2200      	movs	r2, #0
 8000278:	701a      	strb	r2, [r3, #0]
 800027a:	4b04      	ldr	r3, [pc, #16]	; (800028c <ADC_AdjustValue+0x24>)
 800027c:	6018      	str	r0, [r3, #0]
 800027e:	4770      	bx	lr
 8000280:	20001388 	.word	0x20001388
 8000284:	2000138c 	.word	0x2000138c
 8000288:	20001381 	.word	0x20001381
 800028c:	20001384 	.word	0x20001384

08000290 <ADC_Start>:
 8000290:	4b04      	ldr	r3, [pc, #16]	; (80002a4 <ADC_Start+0x14>)
 8000292:	689a      	ldr	r2, [r3, #8]
 8000294:	f042 0201 	orr.w	r2, r2, #1
 8000298:	609a      	str	r2, [r3, #8]
 800029a:	689a      	ldr	r2, [r3, #8]
 800029c:	f042 4280 	orr.w	r2, r2, #1073741824	; 0x40000000
 80002a0:	609a      	str	r2, [r3, #8]
 80002a2:	4770      	bx	lr
 80002a4:	40012000 	.word	0x40012000

080002a8 <ADC_IRQHandler>:
 80002a8:	b538      	push	{r3, r4, r5, lr}
 80002aa:	4c10      	ldr	r4, [pc, #64]	; (80002ec <ADC_IRQHandler+0x44>)
 80002ac:	4a10      	ldr	r2, [pc, #64]	; (80002f0 <ADC_IRQHandler+0x48>)
 80002ae:	6ce3      	ldr	r3, [r4, #76]	; 0x4c
 80002b0:	4d10      	ldr	r5, [pc, #64]	; (80002f4 <ADC_IRQHandler+0x4c>)
 80002b2:	f3c3 03c7 	ubfx	r3, r3, #3, #8
 80002b6:	7013      	strb	r3, [r2, #0]
 80002b8:	4a0f      	ldr	r2, [pc, #60]	; (80002f8 <ADC_IRQHandler+0x50>)
 80002ba:	6812      	ldr	r2, [r2, #0]
 80002bc:	7811      	ldrb	r1, [r2, #0]
 80002be:	4a0f      	ldr	r2, [pc, #60]	; (80002fc <ADC_IRQHandler+0x54>)
 80002c0:	428b      	cmp	r3, r1
 80002c2:	7011      	strb	r1, [r2, #0]
 80002c4:	782a      	ldrb	r2, [r5, #0]
 80002c6:	d90a      	bls.n	80002de <ADC_IRQHandler+0x36>
 80002c8:	b922      	cbnz	r2, 80002d4 <ADC_IRQHandler+0x2c>
 80002ca:	4b0d      	ldr	r3, [pc, #52]	; (8000300 <ADC_IRQHandler+0x58>)
 80002cc:	681b      	ldr	r3, [r3, #0]
 80002ce:	4798      	blx	r3
 80002d0:	2301      	movs	r3, #1
 80002d2:	702b      	strb	r3, [r5, #0]
 80002d4:	68a3      	ldr	r3, [r4, #8]
 80002d6:	f043 4380 	orr.w	r3, r3, #1073741824	; 0x40000000
 80002da:	60a3      	str	r3, [r4, #8]
 80002dc:	bd38      	pop	{r3, r4, r5, pc}
 80002de:	2a01      	cmp	r2, #1
 80002e0:	d1f8      	bne.n	80002d4 <ADC_IRQHandler+0x2c>
 80002e2:	4b08      	ldr	r3, [pc, #32]	; (8000304 <ADC_IRQHandler+0x5c>)
 80002e4:	681b      	ldr	r3, [r3, #0]
 80002e6:	4798      	blx	r3
 80002e8:	2300      	movs	r3, #0
 80002ea:	e7f2      	b.n	80002d2 <ADC_IRQHandler+0x2a>
 80002ec:	40012000 	.word	0x40012000
 80002f0:	20001391 	.word	0x20001391
 80002f4:	20001381 	.word	0x20001381
 80002f8:	20001384 	.word	0x20001384
 80002fc:	20001390 	.word	0x20001390
 8000300:	20001388 	.word	0x20001388
 8000304:	2000138c 	.word	0x2000138c

08000308 <pwm>:
 8000308:	b510      	push	{r4, lr}
 800030a:	4c08      	ldr	r4, [pc, #32]	; (800032c <pwm+0x24>)
 800030c:	6823      	ldr	r3, [r4, #0]
 800030e:	210e      	movs	r1, #14
 8000310:	3301      	adds	r3, #1
 8000312:	2000      	movs	r0, #0
 8000314:	6023      	str	r3, [r4, #0]
 8000316:	f000 f929 	bl	800056c <GPIO_vTogglePinValue>
 800031a:	6823      	ldr	r3, [r4, #0]
 800031c:	2b02      	cmp	r3, #2
 800031e:	d103      	bne.n	8000328 <pwm+0x20>
 8000320:	e8bd 4010 	ldmia.w	sp!, {r4, lr}
 8000324:	f000 bc10 	b.w	8000b48 <STK_Stop>
 8000328:	bd10      	pop	{r4, pc}
 800032a:	bf00      	nop
 800032c:	20001394 	.word	0x20001394

08000330 <Door_Init>:
 8000330:	2201      	movs	r2, #1
 8000332:	210e      	movs	r1, #14
 8000334:	2000      	movs	r0, #0
 8000336:	f000 b82d 	b.w	8000394 <GPIO_vSetMode>
	...

0800033c <Door_Control>:
 800033c:	4601      	mov	r1, r0
 800033e:	4a02      	ldr	r2, [pc, #8]	; (8000348 <Door_Control+0xc>)
 8000340:	2032      	movs	r0, #50	; 0x32
 8000342:	f000 bc43 	b.w	8000bcc <STK_PWM>
 8000346:	bf00      	nop
 8000348:	08000309 	.word	0x08000309

0800034c <EXTI0_IRQHandler>:
 800034c:	4a05      	ldr	r2, [pc, #20]	; (8000364 <EXTI0_IRQHandler+0x18>)
 800034e:	6953      	ldr	r3, [r2, #20]
 8000350:	f043 0301 	orr.w	r3, r3, #1
 8000354:	6153      	str	r3, [r2, #20]
 8000356:	4b04      	ldr	r3, [pc, #16]	; (8000368 <EXTI0_IRQHandler+0x1c>)
 8000358:	681b      	ldr	r3, [r3, #0]
 800035a:	b113      	cbz	r3, 8000362 <EXTI0_IRQHandler+0x16>
 800035c:	4a03      	ldr	r2, [pc, #12]	; (800036c <EXTI0_IRQHandler+0x20>)
 800035e:	6810      	ldr	r0, [r2, #0]
 8000360:	4718      	bx	r3
 8000362:	4770      	bx	lr
 8000364:	40013c00 	.word	0x40013c00
 8000368:	20001398 	.word	0x20001398
 800036c:	200013d8 	.word	0x200013d8

08000370 <EXTI1_IRQHandler>:
 8000370:	4a05      	ldr	r2, [pc, #20]	; (8000388 <EXTI1_IRQHandler+0x18>)
 8000372:	6953      	ldr	r3, [r2, #20]
 8000374:	f043 0302 	orr.w	r3, r3, #2
 8000378:	6153      	str	r3, [r2, #20]
 800037a:	4b04      	ldr	r3, [pc, #16]	; (800038c <EXTI1_IRQHandler+0x1c>)
 800037c:	685b      	ldr	r3, [r3, #4]
 800037e:	b113      	cbz	r3, 8000386 <EXTI1_IRQHandler+0x16>
 8000380:	4a03      	ldr	r2, [pc, #12]	; (8000390 <EXTI1_IRQHandler+0x20>)
 8000382:	6850      	ldr	r0, [r2, #4]
 8000384:	4718      	bx	r3
 8000386:	4770      	bx	lr
 8000388:	40013c00 	.word	0x40013c00
 800038c:	20001398 	.word	0x20001398
 8000390:	200013d8 	.word	0x200013d8

08000394 <GPIO_vSetMode>:
 8000394:	2805      	cmp	r0, #5
 8000396:	d815      	bhi.n	80003c4 <GPIO_vSetMode+0x30>
 8000398:	290f      	cmp	r1, #15
 800039a:	d813      	bhi.n	80003c4 <GPIO_vSetMode+0x30>
 800039c:	2a03      	cmp	r2, #3
 800039e:	d811      	bhi.n	80003c4 <GPIO_vSetMode+0x30>
 80003a0:	0049      	lsls	r1, r1, #1
 80003a2:	408a      	lsls	r2, r1
 80003a4:	3801      	subs	r0, #1
 80003a6:	43d3      	mvns	r3, r2
 80003a8:	2804      	cmp	r0, #4
 80003aa:	d804      	bhi.n	80003b6 <GPIO_vSetMode+0x22>
 80003ac:	e8df f000 	tbb	[pc, r0]
 80003b0:	110f0d0b 	.word	0x110f0d0b
 80003b4:	13          	.byte	0x13
 80003b5:	00          	.byte	0x00
 80003b6:	4909      	ldr	r1, [pc, #36]	; (80003dc <GPIO_vSetMode+0x48>)
 80003b8:	6808      	ldr	r0, [r1, #0]
 80003ba:	4003      	ands	r3, r0
 80003bc:	600b      	str	r3, [r1, #0]
 80003be:	680b      	ldr	r3, [r1, #0]
 80003c0:	431a      	orrs	r2, r3
 80003c2:	600a      	str	r2, [r1, #0]
 80003c4:	4770      	bx	lr
 80003c6:	4906      	ldr	r1, [pc, #24]	; (80003e0 <GPIO_vSetMode+0x4c>)
 80003c8:	e7f6      	b.n	80003b8 <GPIO_vSetMode+0x24>
 80003ca:	4906      	ldr	r1, [pc, #24]	; (80003e4 <GPIO_vSetMode+0x50>)
 80003cc:	e7f4      	b.n	80003b8 <GPIO_vSetMode+0x24>
 80003ce:	4906      	ldr	r1, [pc, #24]	; (80003e8 <GPIO_vSetMode+0x54>)
 80003d0:	e7f2      	b.n	80003b8 <GPIO_vSetMode+0x24>
 80003d2:	4906      	ldr	r1, [pc, #24]	; (80003ec <GPIO_vSetMode+0x58>)
 80003d4:	e7f0      	b.n	80003b8 <GPIO_vSetMode+0x24>
 80003d6:	4906      	ldr	r1, [pc, #24]	; (80003f0 <GPIO_vSetMode+0x5c>)
 80003d8:	e7ee      	b.n	80003b8 <GPIO_vSetMode+0x24>
 80003da:	bf00      	nop
 80003dc:	40020000 	.word	0x40020000
 80003e0:	40020400 	.word	0x40020400
 80003e4:	40020800 	.word	0x40020800
 80003e8:	40020c00 	.word	0x40020c00
 80003ec:	40021000 	.word	0x40021000
 80003f0:	40021c00 	.word	0x40021c00

080003f4 <GPIO_vSetPullUpPullDown>:
 80003f4:	2805      	cmp	r0, #5
 80003f6:	d811      	bhi.n	800041c <GPIO_vSetPullUpPullDown+0x28>
 80003f8:	290f      	cmp	r1, #15
 80003fa:	d80f      	bhi.n	800041c <GPIO_vSetPullUpPullDown+0x28>
 80003fc:	2a02      	cmp	r2, #2
 80003fe:	d80d      	bhi.n	800041c <GPIO_vSetPullUpPullDown+0x28>
 8000400:	0049      	lsls	r1, r1, #1
 8000402:	3801      	subs	r0, #1
 8000404:	408a      	lsls	r2, r1
 8000406:	2804      	cmp	r0, #4
 8000408:	d804      	bhi.n	8000414 <GPIO_vSetPullUpPullDown+0x20>
 800040a:	e8df f000 	tbb	[pc, r0]
 800040e:	0a08      	.short	0x0a08
 8000410:	0e0c      	.short	0x0e0c
 8000412:	10          	.byte	0x10
 8000413:	00          	.byte	0x00
 8000414:	4907      	ldr	r1, [pc, #28]	; (8000434 <GPIO_vSetPullUpPullDown+0x40>)
 8000416:	68cb      	ldr	r3, [r1, #12]
 8000418:	431a      	orrs	r2, r3
 800041a:	60ca      	str	r2, [r1, #12]
 800041c:	4770      	bx	lr
 800041e:	4906      	ldr	r1, [pc, #24]	; (8000438 <GPIO_vSetPullUpPullDown+0x44>)
 8000420:	e7f9      	b.n	8000416 <GPIO_vSetPullUpPullDown+0x22>
 8000422:	4906      	ldr	r1, [pc, #24]	; (800043c <GPIO_vSetPullUpPullDown+0x48>)
 8000424:	e7f7      	b.n	8000416 <GPIO_vSetPullUpPullDown+0x22>
 8000426:	4906      	ldr	r1, [pc, #24]	; (8000440 <GPIO_vSetPullUpPullDown+0x4c>)
 8000428:	e7f5      	b.n	8000416 <GPIO_vSetPullUpPullDown+0x22>
 800042a:	4906      	ldr	r1, [pc, #24]	; (8000444 <GPIO_vSetPullUpPullDown+0x50>)
 800042c:	e7f3      	b.n	8000416 <GPIO_vSetPullUpPullDown+0x22>
 800042e:	4906      	ldr	r1, [pc, #24]	; (8000448 <GPIO_vSetPullUpPullDown+0x54>)
 8000430:	e7f1      	b.n	8000416 <GPIO_vSetPullUpPullDown+0x22>
 8000432:	bf00      	nop
 8000434:	40020000 	.word	0x40020000
 8000438:	40020400 	.word	0x40020400
 800043c:	40020800 	.word	0x40020800
 8000440:	40020c00 	.word	0x40020c00
 8000444:	40021000 	.word	0x40021000
 8000448:	40021c00 	.word	0x40021c00

0800044c <GPIO_vSetAlternateFunction>:
 800044c:	2805      	cmp	r0, #5
 800044e:	d81c      	bhi.n	800048a <GPIO_vSetAlternateFunction+0x3e>
 8000450:	290f      	cmp	r1, #15
 8000452:	d81a      	bhi.n	800048a <GPIO_vSetAlternateFunction+0x3e>
 8000454:	2a0f      	cmp	r2, #15
 8000456:	d818      	bhi.n	800048a <GPIO_vSetAlternateFunction+0x3e>
 8000458:	08cb      	lsrs	r3, r1, #3
 800045a:	f001 0107 	and.w	r1, r1, #7
 800045e:	0089      	lsls	r1, r1, #2
 8000460:	408a      	lsls	r2, r1
 8000462:	009b      	lsls	r3, r3, #2
 8000464:	3801      	subs	r0, #1
 8000466:	43d1      	mvns	r1, r2
 8000468:	f103 4380 	add.w	r3, r3, #1073741824	; 0x40000000
 800046c:	2804      	cmp	r0, #4
 800046e:	d804      	bhi.n	800047a <GPIO_vSetAlternateFunction+0x2e>
 8000470:	e8df f000 	tbb	[pc, r0]
 8000474:	15120f0c 	.word	0x15120f0c
 8000478:	18          	.byte	0x18
 8000479:	00          	.byte	0x00
 800047a:	f503 3300 	add.w	r3, r3, #131072	; 0x20000
 800047e:	6a18      	ldr	r0, [r3, #32]
 8000480:	4001      	ands	r1, r0
 8000482:	6219      	str	r1, [r3, #32]
 8000484:	6a19      	ldr	r1, [r3, #32]
 8000486:	430a      	orrs	r2, r1
 8000488:	621a      	str	r2, [r3, #32]
 800048a:	4770      	bx	lr
 800048c:	f503 3301 	add.w	r3, r3, #132096	; 0x20400
 8000490:	e7f5      	b.n	800047e <GPIO_vSetAlternateFunction+0x32>
 8000492:	f503 3302 	add.w	r3, r3, #133120	; 0x20800
 8000496:	e7f2      	b.n	800047e <GPIO_vSetAlternateFunction+0x32>
 8000498:	f503 3303 	add.w	r3, r3, #134144	; 0x20c00
 800049c:	e7ef      	b.n	800047e <GPIO_vSetAlternateFunction+0x32>
 800049e:	f503 3304 	add.w	r3, r3, #135168	; 0x21000
 80004a2:	e7ec      	b.n	800047e <GPIO_vSetAlternateFunction+0x32>
 80004a4:	f503 3307 	add.w	r3, r3, #138240	; 0x21c00
 80004a8:	e7e9      	b.n	800047e <GPIO_vSetAlternateFunction+0x32>
	...

080004ac <GPIO_vWritePinValue>:
 80004ac:	2805      	cmp	r0, #5
 80004ae:	d819      	bhi.n	80004e4 <GPIO_vWritePinValue+0x38>
 80004b0:	290f      	cmp	r1, #15
 80004b2:	d817      	bhi.n	80004e4 <GPIO_vWritePinValue+0x38>
 80004b4:	2a01      	cmp	r2, #1
 80004b6:	d815      	bhi.n	80004e4 <GPIO_vWritePinValue+0x38>
 80004b8:	bf1e      	ittt	ne
 80004ba:	f101 0210 	addne.w	r2, r1, #16
 80004be:	b2d2      	uxtbne	r2, r2
 80004c0:	2101      	movne	r1, #1
 80004c2:	f100 30ff 	add.w	r0, r0, #4294967295
 80004c6:	bf14      	ite	ne
 80004c8:	fa01 f202 	lslne.w	r2, r1, r2
 80004cc:	408a      	lsleq	r2, r1
 80004ce:	2804      	cmp	r0, #4
 80004d0:	d804      	bhi.n	80004dc <GPIO_vWritePinValue+0x30>
 80004d2:	e8df f000 	tbb	[pc, r0]
 80004d6:	0a08      	.short	0x0a08
 80004d8:	0e0c      	.short	0x0e0c
 80004da:	10          	.byte	0x10
 80004db:	00          	.byte	0x00
 80004dc:	4b07      	ldr	r3, [pc, #28]	; (80004fc <GPIO_vWritePinValue+0x50>)
 80004de:	6999      	ldr	r1, [r3, #24]
 80004e0:	430a      	orrs	r2, r1
 80004e2:	619a      	str	r2, [r3, #24]
 80004e4:	4770      	bx	lr
 80004e6:	4b06      	ldr	r3, [pc, #24]	; (8000500 <GPIO_vWritePinValue+0x54>)
 80004e8:	e7f9      	b.n	80004de <GPIO_vWritePinValue+0x32>
 80004ea:	4b06      	ldr	r3, [pc, #24]	; (8000504 <GPIO_vWritePinValue+0x58>)
 80004ec:	e7f7      	b.n	80004de <GPIO_vWritePinValue+0x32>
 80004ee:	4b06      	ldr	r3, [pc, #24]	; (8000508 <GPIO_vWritePinValue+0x5c>)
 80004f0:	e7f5      	b.n	80004de <GPIO_vWritePinValue+0x32>
 80004f2:	4b06      	ldr	r3, [pc, #24]	; (800050c <GPIO_vWritePinValue+0x60>)
 80004f4:	e7f3      	b.n	80004de <GPIO_vWritePinValue+0x32>
 80004f6:	4b06      	ldr	r3, [pc, #24]	; (8000510 <GPIO_vWritePinValue+0x64>)
 80004f8:	e7f1      	b.n	80004de <GPIO_vWritePinValue+0x32>
 80004fa:	bf00      	nop
 80004fc:	40020000 	.word	0x40020000
 8000500:	40020400 	.word	0x40020400
 8000504:	40020800 	.word	0x40020800
 8000508:	40020c00 	.word	0x40020c00
 800050c:	40021000 	.word	0x40021000
 8000510:	40021c00 	.word	0x40021c00

08000514 <GPIO_vGetPinValue>:
 8000514:	2805      	cmp	r0, #5
 8000516:	d811      	bhi.n	800053c <GPIO_vGetPinValue+0x28>
 8000518:	290f      	cmp	r1, #15
 800051a:	d80f      	bhi.n	800053c <GPIO_vGetPinValue+0x28>
 800051c:	b172      	cbz	r2, 800053c <GPIO_vGetPinValue+0x28>
 800051e:	3801      	subs	r0, #1
 8000520:	2804      	cmp	r0, #4
 8000522:	d804      	bhi.n	800052e <GPIO_vGetPinValue+0x1a>
 8000524:	e8df f000 	tbb	[pc, r0]
 8000528:	110f0d0b 	.word	0x110f0d0b
 800052c:	13          	.byte	0x13
 800052d:	00          	.byte	0x00
 800052e:	4b09      	ldr	r3, [pc, #36]	; (8000554 <GPIO_vGetPinValue+0x40>)
 8000530:	691b      	ldr	r3, [r3, #16]
 8000532:	fa23 f101 	lsr.w	r1, r3, r1
 8000536:	f001 0101 	and.w	r1, r1, #1
 800053a:	7011      	strb	r1, [r2, #0]
 800053c:	4770      	bx	lr
 800053e:	4b06      	ldr	r3, [pc, #24]	; (8000558 <GPIO_vGetPinValue+0x44>)
 8000540:	e7f6      	b.n	8000530 <GPIO_vGetPinValue+0x1c>
 8000542:	4b06      	ldr	r3, [pc, #24]	; (800055c <GPIO_vGetPinValue+0x48>)
 8000544:	e7f4      	b.n	8000530 <GPIO_vGetPinValue+0x1c>
 8000546:	4b06      	ldr	r3, [pc, #24]	; (8000560 <GPIO_vGetPinValue+0x4c>)
 8000548:	e7f2      	b.n	8000530 <GPIO_vGetPinValue+0x1c>
 800054a:	4b06      	ldr	r3, [pc, #24]	; (8000564 <GPIO_vGetPinValue+0x50>)
 800054c:	e7f0      	b.n	8000530 <GPIO_vGetPinValue+0x1c>
 800054e:	4b06      	ldr	r3, [pc, #24]	; (8000568 <GPIO_vGetPinValue+0x54>)
 8000550:	e7ee      	b.n	8000530 <GPIO_vGetPinValue+0x1c>
 8000552:	bf00      	nop
 8000554:	40020000 	.word	0x40020000
 8000558:	40020400 	.word	0x40020400
 800055c:	40020800 	.word	0x40020800
 8000560:	40020c00 	.word	0x40020c00
 8000564:	40021000 	.word	0x40021000
 8000568:	40021c00 	.word	0x40021c00

0800056c <GPIO_vTogglePinValue>:
 800056c:	2805      	cmp	r0, #5
 800056e:	d810      	bhi.n	8000592 <GPIO_vTogglePinValue+0x26>
 8000570:	290f      	cmp	r1, #15
 8000572:	d80e      	bhi.n	8000592 <GPIO_vTogglePinValue+0x26>
 8000574:	2301      	movs	r3, #1
 8000576:	3801      	subs	r0, #1
 8000578:	fa03 f101 	lsl.w	r1, r3, r1
 800057c:	2804      	cmp	r0, #4
 800057e:	d804      	bhi.n	800058a <GPIO_vTogglePinValue+0x1e>
 8000580:	e8df f000 	tbb	[pc, r0]
 8000584:	0e0c0a08 	.word	0x0e0c0a08
 8000588:	10          	.byte	0x10
 8000589:	00          	.byte	0x00
 800058a:	4a07      	ldr	r2, [pc, #28]	; (80005a8 <GPIO_vTogglePinValue+0x3c>)
 800058c:	6953      	ldr	r3, [r2, #20]
 800058e:	4059      	eors	r1, r3
 8000590:	6151      	str	r1, [r2, #20]
 8000592:	4770      	bx	lr
 8000594:	4a05      	ldr	r2, [pc, #20]	; (80005ac <GPIO_vTogglePinValue+0x40>)
 8000596:	e7f9      	b.n	800058c <GPIO_vTogglePinValue+0x20>
 8000598:	4a05      	ldr	r2, [pc, #20]	; (80005b0 <GPIO_vTogglePinValue+0x44>)
 800059a:	e7f7      	b.n	800058c <GPIO_vTogglePinValue+0x20>
 800059c:	4a05      	ldr	r2, [pc, #20]	; (80005b4 <GPIO_vTogglePinValue+0x48>)
 800059e:	e7f5      	b.n	800058c <GPIO_vTogglePinValue+0x20>
 80005a0:	4a05      	ldr	r2, [pc, #20]	; (80005b8 <GPIO_vTogglePinValue+0x4c>)
 80005a2:	e7f3      	b.n	800058c <GPIO_vTogglePinValue+0x20>
 80005a4:	4a05      	ldr	r2, [pc, #20]	; (80005bc <GPIO_vTogglePinValue+0x50>)
 80005a6:	e7f1      	b.n	800058c <GPIO_vTogglePinValue+0x20>
 80005a8:	40020000 	.word	0x40020000
 80005ac:	40020400 	.word	0x40020400
 80005b0:	40020800 	.word	0x40020800
 80005b4:	40020c00 	.word	0x40020c00
 80005b8:	40021000 	.word	0x40021000
 80005bc:	40021c00 	.word	0x40021c00

080005c0 <HC05_Init>:
 80005c0:	b508      	push	{r3, lr}
 80005c2:	2105      	movs	r1, #5
 80005c4:	2003      	movs	r0, #3
 80005c6:	f000 fa51 	bl	8000a6c <RCC_vEnableClock>
 80005ca:	2202      	movs	r2, #2
 80005cc:	210b      	movs	r1, #11
 80005ce:	2000      	movs	r0, #0
 80005d0:	f7ff fee0 	bl	8000394 <GPIO_vSetMode>
 80005d4:	2202      	movs	r2, #2
 80005d6:	210c      	movs	r1, #12
 80005d8:	2000      	movs	r0, #0
 80005da:	f7ff fedb 	bl	8000394 <GPIO_vSetMode>
 80005de:	2208      	movs	r2, #8
 80005e0:	210b      	movs	r1, #11
 80005e2:	2000      	movs	r0, #0
 80005e4:	f7ff ff32 	bl	800044c <GPIO_vSetAlternateFunction>
 80005e8:	2208      	movs	r2, #8
 80005ea:	210c      	movs	r1, #12
 80005ec:	2000      	movs	r0, #0
 80005ee:	f7ff ff2d 	bl	800044c <GPIO_vSetAlternateFunction>
 80005f2:	f000 febf 	bl	8001374 <UART6_vInit>
 80005f6:	4b04      	ldr	r3, [pc, #16]	; (8000608 <HC05_Init+0x48>)
 80005f8:	6818      	ldr	r0, [r3, #0]
 80005fa:	f000 fed1 	bl	80013a0 <UART6_Callback>
 80005fe:	e8bd 4008 	ldmia.w	sp!, {r3, lr}
 8000602:	2047      	movs	r0, #71	; 0x47
 8000604:	f000 ba08 	b.w	8000a18 <NVIC_EnableIRQ>
 8000608:	20001418 	.word	0x20001418

0800060c <HC05_SetInputReading>:
 800060c:	4b01      	ldr	r3, [pc, #4]	; (8000614 <HC05_SetInputReading+0x8>)
 800060e:	6018      	str	r0, [r3, #0]
 8000610:	4770      	bx	lr
 8000612:	bf00      	nop
 8000614:	20001418 	.word	0x20001418

08000618 <KEYPAD_enuInit>:
 8000618:	b508      	push	{r3, lr}
 800061a:	2201      	movs	r2, #1
 800061c:	2104      	movs	r1, #4
 800061e:	2003      	movs	r0, #3
 8000620:	f7ff feb8 	bl	8000394 <GPIO_vSetMode>
 8000624:	2201      	movs	r2, #1
 8000626:	2105      	movs	r1, #5
 8000628:	2003      	movs	r0, #3
 800062a:	f7ff feb3 	bl	8000394 <GPIO_vSetMode>
 800062e:	2201      	movs	r2, #1
 8000630:	2106      	movs	r1, #6
 8000632:	2003      	movs	r0, #3
 8000634:	f7ff feae 	bl	8000394 <GPIO_vSetMode>
 8000638:	2201      	movs	r2, #1
 800063a:	2107      	movs	r1, #7
 800063c:	2003      	movs	r0, #3
 800063e:	f7ff fea9 	bl	8000394 <GPIO_vSetMode>
 8000642:	2201      	movs	r2, #1
 8000644:	2104      	movs	r1, #4
 8000646:	2003      	movs	r0, #3
 8000648:	f7ff ff30 	bl	80004ac <GPIO_vWritePinValue>
 800064c:	2201      	movs	r2, #1
 800064e:	2105      	movs	r1, #5
 8000650:	2003      	movs	r0, #3
 8000652:	f7ff ff2b 	bl	80004ac <GPIO_vWritePinValue>
 8000656:	2201      	movs	r2, #1
 8000658:	2106      	movs	r1, #6
 800065a:	2003      	movs	r0, #3
 800065c:	f7ff ff26 	bl	80004ac <GPIO_vWritePinValue>
 8000660:	2201      	movs	r2, #1
 8000662:	2107      	movs	r1, #7
 8000664:	2003      	movs	r0, #3
 8000666:	f7ff ff21 	bl	80004ac <GPIO_vWritePinValue>
 800066a:	2200      	movs	r2, #0
 800066c:	4611      	mov	r1, r2
 800066e:	2003      	movs	r0, #3
 8000670:	f7ff fe90 	bl	8000394 <GPIO_vSetMode>
 8000674:	2200      	movs	r2, #0
 8000676:	2101      	movs	r1, #1
 8000678:	2003      	movs	r0, #3
 800067a:	f7ff fe8b 	bl	8000394 <GPIO_vSetMode>
 800067e:	2200      	movs	r2, #0
 8000680:	2102      	movs	r1, #2
 8000682:	2003      	movs	r0, #3
 8000684:	f7ff fe86 	bl	8000394 <GPIO_vSetMode>
 8000688:	2103      	movs	r1, #3
 800068a:	4608      	mov	r0, r1
 800068c:	2200      	movs	r2, #0
 800068e:	f7ff fe81 	bl	8000394 <GPIO_vSetMode>
 8000692:	2201      	movs	r2, #1
 8000694:	2100      	movs	r1, #0
 8000696:	2003      	movs	r0, #3
 8000698:	f7ff feac 	bl	80003f4 <GPIO_vSetPullUpPullDown>
 800069c:	2201      	movs	r2, #1
 800069e:	4611      	mov	r1, r2
 80006a0:	2003      	movs	r0, #3
 80006a2:	f7ff fea7 	bl	80003f4 <GPIO_vSetPullUpPullDown>
 80006a6:	2201      	movs	r2, #1
 80006a8:	2102      	movs	r1, #2
 80006aa:	2003      	movs	r0, #3
 80006ac:	f7ff fea2 	bl	80003f4 <GPIO_vSetPullUpPullDown>
 80006b0:	2103      	movs	r1, #3
 80006b2:	e8bd 4008 	ldmia.w	sp!, {r3, lr}
 80006b6:	2201      	movs	r2, #1
 80006b8:	4608      	mov	r0, r1
 80006ba:	f7ff be9b 	b.w	80003f4 <GPIO_vSetPullUpPullDown>
	...

080006c0 <Keypad_GetPressedKey>:
 80006c0:	e92d 4ff0 	stmdb	sp!, {r4, r5, r6, r7, r8, r9, sl, fp, lr}
 80006c4:	4a34      	ldr	r2, [pc, #208]	; (8000798 <Keypad_GetPressedKey+0xd8>)
 80006c6:	b08f      	sub	sp, #60	; 0x3c
 80006c8:	f04f 3303 	mov.w	r3, #50529027	; 0x3030303
 80006cc:	e9cd 3206 	strd	r3, r2, [sp, #24]
 80006d0:	9308      	str	r3, [sp, #32]
 80006d2:	4b32      	ldr	r3, [pc, #200]	; (800079c <Keypad_GetPressedKey+0xdc>)
 80006d4:	9309      	str	r3, [sp, #36]	; 0x24
 80006d6:	23c7      	movs	r3, #199	; 0xc7
 80006d8:	f88d 3017 	strb.w	r3, [sp, #23]
 80006dc:	ab08      	add	r3, sp, #32
 80006de:	9002      	str	r0, [sp, #8]
 80006e0:	9301      	str	r3, [sp, #4]
 80006e2:	f10d 0924 	add.w	r9, sp, #36	; 0x24
 80006e6:	2400      	movs	r4, #0
 80006e8:	9b01      	ldr	r3, [sp, #4]
 80006ea:	f819 7b01 	ldrb.w	r7, [r9], #1
 80006ee:	f813 6b01 	ldrb.w	r6, [r3], #1
 80006f2:	9301      	str	r3, [sp, #4]
 80006f4:	2200      	movs	r2, #0
 80006f6:	4639      	mov	r1, r7
 80006f8:	4630      	mov	r0, r6
 80006fa:	f7ff fed7 	bl	80004ac <GPIO_vWritePinValue>
 80006fe:	ab0a      	add	r3, sp, #40	; 0x28
 8000700:	4423      	add	r3, r4
 8000702:	f10d 0a1c 	add.w	sl, sp, #28
 8000706:	f04f 0b00 	mov.w	fp, #0
 800070a:	9303      	str	r3, [sp, #12]
 800070c:	ab06      	add	r3, sp, #24
 800070e:	f81a 8b01 	ldrb.w	r8, [sl], #1
 8000712:	f813 500b 	ldrb.w	r5, [r3, fp]
 8000716:	f10d 0217 	add.w	r2, sp, #23
 800071a:	4641      	mov	r1, r8
 800071c:	4628      	mov	r0, r5
 800071e:	f7ff fef9 	bl	8000514 <GPIO_vGetPinValue>
 8000722:	f89d 2017 	ldrb.w	r2, [sp, #23]
 8000726:	bb3a      	cbnz	r2, 8000778 <Keypad_GetPressedKey+0xb8>
 8000728:	200a      	movs	r0, #10
 800072a:	f000 fa1b 	bl	8000b64 <STK_DelayMs>
 800072e:	f10d 0217 	add.w	r2, sp, #23
 8000732:	4641      	mov	r1, r8
 8000734:	4628      	mov	r0, r5
 8000736:	f7ff feed 	bl	8000514 <GPIO_vGetPinValue>
 800073a:	f89d 2017 	ldrb.w	r2, [sp, #23]
 800073e:	b9da      	cbnz	r2, 8000778 <Keypad_GetPressedKey+0xb8>
 8000740:	f10d 0217 	add.w	r2, sp, #23
 8000744:	4641      	mov	r1, r8
 8000746:	4628      	mov	r0, r5
 8000748:	f7ff fee4 	bl	8000514 <GPIO_vGetPinValue>
 800074c:	f89d 2017 	ldrb.w	r2, [sp, #23]
 8000750:	2a00      	cmp	r2, #0
 8000752:	d0f5      	beq.n	8000740 <Keypad_GetPressedKey+0x80>
 8000754:	4a12      	ldr	r2, [pc, #72]	; (80007a0 <Keypad_GetPressedKey+0xe0>)
 8000756:	f10d 0c28 	add.w	ip, sp, #40	; 0x28
 800075a:	f102 0e10 	add.w	lr, r2, #16
 800075e:	6810      	ldr	r0, [r2, #0]
 8000760:	6851      	ldr	r1, [r2, #4]
 8000762:	4665      	mov	r5, ip
 8000764:	c503      	stmia	r5!, {r0, r1}
 8000766:	3208      	adds	r2, #8
 8000768:	4572      	cmp	r2, lr
 800076a:	46ac      	mov	ip, r5
 800076c:	d1f7      	bne.n	800075e <Keypad_GetPressedKey+0x9e>
 800076e:	9b03      	ldr	r3, [sp, #12]
 8000770:	f813 202b 	ldrb.w	r2, [r3, fp, lsl #2]
 8000774:	9b02      	ldr	r3, [sp, #8]
 8000776:	701a      	strb	r2, [r3, #0]
 8000778:	f10b 0b01 	add.w	fp, fp, #1
 800077c:	f1bb 0f04 	cmp.w	fp, #4
 8000780:	d1c4      	bne.n	800070c <Keypad_GetPressedKey+0x4c>
 8000782:	2201      	movs	r2, #1
 8000784:	4639      	mov	r1, r7
 8000786:	4630      	mov	r0, r6
 8000788:	3401      	adds	r4, #1
 800078a:	f7ff fe8f 	bl	80004ac <GPIO_vWritePinValue>
 800078e:	2c04      	cmp	r4, #4
 8000790:	d1aa      	bne.n	80006e8 <Keypad_GetPressedKey+0x28>
 8000792:	b00f      	add	sp, #60	; 0x3c
 8000794:	e8bd 8ff0 	ldmia.w	sp!, {r4, r5, r6, r7, r8, r9, sl, fp, pc}
 8000798:	03020100 	.word	0x03020100
 800079c:	07060504 	.word	0x07060504
 80007a0:	080018b0 	.word	0x080018b0

080007a4 <LCD_enuLatch>:
 80007a4:	b510      	push	{r4, lr}
 80007a6:	2200      	movs	r2, #0
 80007a8:	4604      	mov	r4, r0
 80007aa:	210e      	movs	r1, #14
 80007ac:	2003      	movs	r0, #3
 80007ae:	f7ff fe7d 	bl	80004ac <GPIO_vWritePinValue>
 80007b2:	2200      	movs	r2, #0
 80007b4:	210f      	movs	r1, #15
 80007b6:	2003      	movs	r0, #3
 80007b8:	f7ff fe78 	bl	80004ac <GPIO_vWritePinValue>
 80007bc:	f3c4 1200 	ubfx	r2, r4, #4, #1
 80007c0:	2109      	movs	r1, #9
 80007c2:	2003      	movs	r0, #3
 80007c4:	f7ff fe72 	bl	80004ac <GPIO_vWritePinValue>
 80007c8:	f3c4 1240 	ubfx	r2, r4, #5, #1
 80007cc:	210a      	movs	r1, #10
 80007ce:	2003      	movs	r0, #3
 80007d0:	f7ff fe6c 	bl	80004ac <GPIO_vWritePinValue>
 80007d4:	f3c4 1280 	ubfx	r2, r4, #6, #1
 80007d8:	210b      	movs	r1, #11
 80007da:	2003      	movs	r0, #3
 80007dc:	f7ff fe66 	bl	80004ac <GPIO_vWritePinValue>
 80007e0:	09e2      	lsrs	r2, r4, #7
 80007e2:	210c      	movs	r1, #12
 80007e4:	2003      	movs	r0, #3
 80007e6:	f7ff fe61 	bl	80004ac <GPIO_vWritePinValue>
 80007ea:	2201      	movs	r2, #1
 80007ec:	210f      	movs	r1, #15
 80007ee:	2003      	movs	r0, #3
 80007f0:	f7ff fe5c 	bl	80004ac <GPIO_vWritePinValue>
 80007f4:	2005      	movs	r0, #5
 80007f6:	f000 f9b5 	bl	8000b64 <STK_DelayMs>
 80007fa:	2200      	movs	r2, #0
 80007fc:	210f      	movs	r1, #15
 80007fe:	2003      	movs	r0, #3
 8000800:	f7ff fe54 	bl	80004ac <GPIO_vWritePinValue>
 8000804:	2005      	movs	r0, #5
 8000806:	f000 f9ad 	bl	8000b64 <STK_DelayMs>
 800080a:	f004 0201 	and.w	r2, r4, #1
 800080e:	2109      	movs	r1, #9
 8000810:	2003      	movs	r0, #3
 8000812:	f7ff fe4b 	bl	80004ac <GPIO_vWritePinValue>
 8000816:	f3c4 0240 	ubfx	r2, r4, #1, #1
 800081a:	210a      	movs	r1, #10
 800081c:	2003      	movs	r0, #3
 800081e:	f7ff fe45 	bl	80004ac <GPIO_vWritePinValue>
 8000822:	f3c4 0280 	ubfx	r2, r4, #2, #1
 8000826:	210b      	movs	r1, #11
 8000828:	2003      	movs	r0, #3
 800082a:	f7ff fe3f 	bl	80004ac <GPIO_vWritePinValue>
 800082e:	f3c4 02c0 	ubfx	r2, r4, #3, #1
 8000832:	210c      	movs	r1, #12
 8000834:	2003      	movs	r0, #3
 8000836:	f7ff fe39 	bl	80004ac <GPIO_vWritePinValue>
 800083a:	2201      	movs	r2, #1
 800083c:	210f      	movs	r1, #15
 800083e:	2003      	movs	r0, #3
 8000840:	f7ff fe34 	bl	80004ac <GPIO_vWritePinValue>
 8000844:	2005      	movs	r0, #5
 8000846:	f000 f98d 	bl	8000b64 <STK_DelayMs>
 800084a:	2003      	movs	r0, #3
 800084c:	2200      	movs	r2, #0
 800084e:	210f      	movs	r1, #15
 8000850:	f7ff fe2c 	bl	80004ac <GPIO_vWritePinValue>
 8000854:	e8bd 4010 	ldmia.w	sp!, {r4, lr}
 8000858:	2005      	movs	r0, #5
 800085a:	f000 b983 	b.w	8000b64 <STK_DelayMs>

0800085e <LCD_enuInit>:
 800085e:	b508      	push	{r3, lr}
 8000860:	2023      	movs	r0, #35	; 0x23
 8000862:	f000 f97f 	bl	8000b64 <STK_DelayMs>
 8000866:	2201      	movs	r2, #1
 8000868:	210d      	movs	r1, #13
 800086a:	2003      	movs	r0, #3
 800086c:	f7ff fd92 	bl	8000394 <GPIO_vSetMode>
 8000870:	2201      	movs	r2, #1
 8000872:	210e      	movs	r1, #14
 8000874:	2003      	movs	r0, #3
 8000876:	f7ff fd8d 	bl	8000394 <GPIO_vSetMode>
 800087a:	2201      	movs	r2, #1
 800087c:	210f      	movs	r1, #15
 800087e:	2003      	movs	r0, #3
 8000880:	f7ff fd88 	bl	8000394 <GPIO_vSetMode>
 8000884:	2201      	movs	r2, #1
 8000886:	2109      	movs	r1, #9
 8000888:	2003      	movs	r0, #3
 800088a:	f7ff fd83 	bl	8000394 <GPIO_vSetMode>
 800088e:	2201      	movs	r2, #1
 8000890:	210a      	movs	r1, #10
 8000892:	2003      	movs	r0, #3
 8000894:	f7ff fd7e 	bl	8000394 <GPIO_vSetMode>
 8000898:	2201      	movs	r2, #1
 800089a:	210b      	movs	r1, #11
 800089c:	2003      	movs	r0, #3
 800089e:	f7ff fd79 	bl	8000394 <GPIO_vSetMode>
 80008a2:	2201      	movs	r2, #1
 80008a4:	210c      	movs	r1, #12
 80008a6:	2003      	movs	r0, #3
 80008a8:	f7ff fd74 	bl	8000394 <GPIO_vSetMode>
 80008ac:	2200      	movs	r2, #0
 80008ae:	210d      	movs	r1, #13
 80008b0:	2003      	movs	r0, #3
 80008b2:	f7ff fdfb 	bl	80004ac <GPIO_vWritePinValue>
 80008b6:	2200      	movs	r2, #0
 80008b8:	2109      	movs	r1, #9
 80008ba:	2003      	movs	r0, #3
 80008bc:	f7ff fdf6 	bl	80004ac <GPIO_vWritePinValue>
 80008c0:	2201      	movs	r2, #1
 80008c2:	210a      	movs	r1, #10
 80008c4:	2003      	movs	r0, #3
 80008c6:	f7ff fdf1 	bl	80004ac <GPIO_vWritePinValue>
 80008ca:	2200      	movs	r2, #0
 80008cc:	210b      	movs	r1, #11
 80008ce:	2003      	movs	r0, #3
 80008d0:	f7ff fdec 	bl	80004ac <GPIO_vWritePinValue>
 80008d4:	2200      	movs	r2, #0
 80008d6:	210c      	movs	r1, #12
 80008d8:	2003      	movs	r0, #3
 80008da:	f7ff fde7 	bl	80004ac <GPIO_vWritePinValue>
 80008de:	2201      	movs	r2, #1
 80008e0:	210f      	movs	r1, #15
 80008e2:	2003      	movs	r0, #3
 80008e4:	f7ff fde2 	bl	80004ac <GPIO_vWritePinValue>
 80008e8:	2005      	movs	r0, #5
 80008ea:	f000 f93b 	bl	8000b64 <STK_DelayMs>
 80008ee:	2200      	movs	r2, #0
 80008f0:	210f      	movs	r1, #15
 80008f2:	2003      	movs	r0, #3
 80008f4:	f7ff fdda 	bl	80004ac <GPIO_vWritePinValue>
 80008f8:	2005      	movs	r0, #5
 80008fa:	f000 f933 	bl	8000b64 <STK_DelayMs>
 80008fe:	2028      	movs	r0, #40	; 0x28
 8000900:	f7ff ff50 	bl	80007a4 <LCD_enuLatch>
 8000904:	2001      	movs	r0, #1
 8000906:	f000 f92d 	bl	8000b64 <STK_DelayMs>
 800090a:	200c      	movs	r0, #12
 800090c:	f7ff ff4a 	bl	80007a4 <LCD_enuLatch>
 8000910:	2001      	movs	r0, #1
 8000912:	f000 f927 	bl	8000b64 <STK_DelayMs>
 8000916:	2001      	movs	r0, #1
 8000918:	f7ff ff44 	bl	80007a4 <LCD_enuLatch>
 800091c:	2002      	movs	r0, #2
 800091e:	f000 f921 	bl	8000b64 <STK_DelayMs>
 8000922:	e8bd 4008 	ldmia.w	sp!, {r3, lr}
 8000926:	2006      	movs	r0, #6
 8000928:	f7ff bf3c 	b.w	80007a4 <LCD_enuLatch>

0800092c <LCD_enuWriteCommand>:
 800092c:	b510      	push	{r4, lr}
 800092e:	2200      	movs	r2, #0
 8000930:	4604      	mov	r4, r0
 8000932:	210d      	movs	r1, #13
 8000934:	2003      	movs	r0, #3
 8000936:	f7ff fdb9 	bl	80004ac <GPIO_vWritePinValue>
 800093a:	2200      	movs	r2, #0
 800093c:	210e      	movs	r1, #14
 800093e:	2003      	movs	r0, #3
 8000940:	f7ff fdb4 	bl	80004ac <GPIO_vWritePinValue>
 8000944:	2003      	movs	r0, #3
 8000946:	2200      	movs	r2, #0
 8000948:	210f      	movs	r1, #15
 800094a:	f7ff fdaf 	bl	80004ac <GPIO_vWritePinValue>
 800094e:	4620      	mov	r0, r4
 8000950:	e8bd 4010 	ldmia.w	sp!, {r4, lr}
 8000954:	f7ff bf26 	b.w	80007a4 <LCD_enuLatch>

08000958 <LCD_enuWriteData>:
 8000958:	b510      	push	{r4, lr}
 800095a:	2201      	movs	r2, #1
 800095c:	4604      	mov	r4, r0
 800095e:	210d      	movs	r1, #13
 8000960:	2003      	movs	r0, #3
 8000962:	f7ff fda3 	bl	80004ac <GPIO_vWritePinValue>
 8000966:	2200      	movs	r2, #0
 8000968:	210e      	movs	r1, #14
 800096a:	2003      	movs	r0, #3
 800096c:	f7ff fd9e 	bl	80004ac <GPIO_vWritePinValue>
 8000970:	2003      	movs	r0, #3
 8000972:	2200      	movs	r2, #0
 8000974:	210f      	movs	r1, #15
 8000976:	f7ff fd99 	bl	80004ac <GPIO_vWritePinValue>
 800097a:	4620      	mov	r0, r4
 800097c:	e8bd 4010 	ldmia.w	sp!, {r4, lr}
 8000980:	f7ff bf10 	b.w	80007a4 <LCD_enuLatch>

08000984 <LCD_enuWriteString>:
 8000984:	b538      	push	{r3, r4, r5, lr}
 8000986:	4604      	mov	r4, r0
 8000988:	b940      	cbnz	r0, 800099c <LCD_enuWriteString+0x18>
 800098a:	bd38      	pop	{r3, r4, r5, pc}
 800098c:	f7ff ffe4 	bl	8000958 <LCD_enuWriteData>
 8000990:	b2eb      	uxtb	r3, r5
 8000992:	3501      	adds	r5, #1
 8000994:	5ce0      	ldrb	r0, [r4, r3]
 8000996:	2800      	cmp	r0, #0
 8000998:	d1f8      	bne.n	800098c <LCD_enuWriteString+0x8>
 800099a:	e7f6      	b.n	800098a <LCD_enuWriteString+0x6>
 800099c:	2500      	movs	r5, #0
 800099e:	e7f7      	b.n	8000990 <LCD_enuWriteString+0xc>

080009a0 <LCD_enuWriteIntegerNum>:
 80009a0:	b570      	push	{r4, r5, r6, lr}
 80009a2:	1e04      	subs	r4, r0, #0
 80009a4:	d104      	bne.n	80009b0 <LCD_enuWriteIntegerNum+0x10>
 80009a6:	e8bd 4070 	ldmia.w	sp!, {r4, r5, r6, lr}
 80009aa:	2030      	movs	r0, #48	; 0x30
 80009ac:	f7ff bfd4 	b.w	8000958 <LCD_enuWriteData>
 80009b0:	da03      	bge.n	80009ba <LCD_enuWriteIntegerNum+0x1a>
 80009b2:	202d      	movs	r0, #45	; 0x2d
 80009b4:	f7ff ffd0 	bl	8000958 <LCD_enuWriteData>
 80009b8:	4264      	negs	r4, r4
 80009ba:	2000      	movs	r0, #0
 80009bc:	4605      	mov	r5, r0
 80009be:	230a      	movs	r3, #10
 80009c0:	fbb4 f2f3 	udiv	r2, r4, r3
 80009c4:	3501      	adds	r5, #1
 80009c6:	fb03 4412 	mls	r4, r3, r2, r4
 80009ca:	fb03 4000 	mla	r0, r3, r0, r4
 80009ce:	b2ed      	uxtb	r5, r5
 80009d0:	4614      	mov	r4, r2
 80009d2:	2a00      	cmp	r2, #0
 80009d4:	d1f4      	bne.n	80009c0 <LCD_enuWriteIntegerNum+0x20>
 80009d6:	240a      	movs	r4, #10
 80009d8:	b905      	cbnz	r5, 80009dc <LCD_enuWriteIntegerNum+0x3c>
 80009da:	bd70      	pop	{r4, r5, r6, pc}
 80009dc:	fbb0 f6f4 	udiv	r6, r0, r4
 80009e0:	fb04 0016 	mls	r0, r4, r6, r0
 80009e4:	3030      	adds	r0, #48	; 0x30
 80009e6:	b2c0      	uxtb	r0, r0
 80009e8:	3d01      	subs	r5, #1
 80009ea:	f7ff ffb5 	bl	8000958 <LCD_enuWriteData>
 80009ee:	b2ed      	uxtb	r5, r5
 80009f0:	4630      	mov	r0, r6
 80009f2:	e7f1      	b.n	80009d8 <LCD_enuWriteIntegerNum+0x38>

080009f4 <LCD_enuGoToPosition>:
 80009f4:	2802      	cmp	r0, #2
 80009f6:	d80e      	bhi.n	8000a16 <LCD_enuGoToPosition+0x22>
 80009f8:	2910      	cmp	r1, #16
 80009fa:	d80c      	bhi.n	8000a16 <LCD_enuGoToPosition+0x22>
 80009fc:	2801      	cmp	r0, #1
 80009fe:	d002      	beq.n	8000a06 <LCD_enuGoToPosition+0x12>
 8000a00:	2802      	cmp	r0, #2
 8000a02:	d005      	beq.n	8000a10 <LCD_enuGoToPosition+0x1c>
 8000a04:	4770      	bx	lr
 8000a06:	f101 007f 	add.w	r0, r1, #127	; 0x7f
 8000a0a:	b2c0      	uxtb	r0, r0
 8000a0c:	f7ff bf8e 	b.w	800092c <LCD_enuWriteCommand>
 8000a10:	f1a1 0041 	sub.w	r0, r1, #65	; 0x41
 8000a14:	e7f9      	b.n	8000a0a <LCD_enuGoToPosition+0x16>
 8000a16:	4770      	bx	lr

08000a18 <NVIC_EnableIRQ>:
 8000a18:	0941      	lsrs	r1, r0, #5
 8000a1a:	4243      	negs	r3, r0
 8000a1c:	b510      	push	{r4, lr}
 8000a1e:	4a08      	ldr	r2, [pc, #32]	; (8000a40 <NVIC_EnableIRQ+0x28>)
 8000a20:	f003 031f 	and.w	r3, r3, #31
 8000a24:	f852 4021 	ldr.w	r4, [r2, r1, lsl #2]
 8000a28:	f000 001f 	and.w	r0, r0, #31
 8000a2c:	bf58      	it	pl
 8000a2e:	4258      	negpl	r0, r3
 8000a30:	2301      	movs	r3, #1
 8000a32:	fa03 f000 	lsl.w	r0, r3, r0
 8000a36:	4320      	orrs	r0, r4
 8000a38:	f842 0021 	str.w	r0, [r2, r1, lsl #2]
 8000a3c:	bd10      	pop	{r4, pc}
 8000a3e:	bf00      	nop
 8000a40:	e000e100 	.word	0xe000e100

08000a44 <RCC_vInitSystemCLK>:
 8000a44:	4b08      	ldr	r3, [pc, #32]	; (8000a68 <RCC_vInitSystemCLK+0x24>)
 8000a46:	681a      	ldr	r2, [r3, #0]
 8000a48:	f042 0201 	orr.w	r2, r2, #1
 8000a4c:	601a      	str	r2, [r3, #0]
 8000a4e:	681a      	ldr	r2, [r3, #0]
 8000a50:	0792      	lsls	r2, r2, #30
 8000a52:	d5fc      	bpl.n	8000a4e <RCC_vInitSystemCLK+0xa>
 8000a54:	689a      	ldr	r2, [r3, #8]
 8000a56:	f022 0201 	bic.w	r2, r2, #1
 8000a5a:	609a      	str	r2, [r3, #8]
 8000a5c:	689a      	ldr	r2, [r3, #8]
 8000a5e:	f022 0202 	bic.w	r2, r2, #2
 8000a62:	609a      	str	r2, [r3, #8]
 8000a64:	4770      	bx	lr
 8000a66:	bf00      	nop
 8000a68:	40023800 	.word	0x40023800

08000a6c <RCC_vEnableClock>:
 8000a6c:	2803      	cmp	r0, #3
 8000a6e:	d81a      	bhi.n	8000aa6 <RCC_vEnableClock+0x3a>
 8000a70:	291f      	cmp	r1, #31
 8000a72:	d818      	bhi.n	8000aa6 <RCC_vEnableClock+0x3a>
 8000a74:	2301      	movs	r3, #1
 8000a76:	2802      	cmp	r0, #2
 8000a78:	fa03 f101 	lsl.w	r1, r3, r1
 8000a7c:	4b0a      	ldr	r3, [pc, #40]	; (8000aa8 <RCC_vEnableClock+0x3c>)
 8000a7e:	d00b      	beq.n	8000a98 <RCC_vEnableClock+0x2c>
 8000a80:	2803      	cmp	r0, #3
 8000a82:	d00d      	beq.n	8000aa0 <RCC_vEnableClock+0x34>
 8000a84:	2801      	cmp	r0, #1
 8000a86:	bf15      	itete	ne
 8000a88:	6b1a      	ldrne	r2, [r3, #48]	; 0x30
 8000a8a:	6b5a      	ldreq	r2, [r3, #52]	; 0x34
 8000a8c:	4311      	orrne	r1, r2
 8000a8e:	4311      	orreq	r1, r2
 8000a90:	bf14      	ite	ne
 8000a92:	6319      	strne	r1, [r3, #48]	; 0x30
 8000a94:	6359      	streq	r1, [r3, #52]	; 0x34
 8000a96:	4770      	bx	lr
 8000a98:	6c1a      	ldr	r2, [r3, #64]	; 0x40
 8000a9a:	4311      	orrs	r1, r2
 8000a9c:	6419      	str	r1, [r3, #64]	; 0x40
 8000a9e:	4770      	bx	lr
 8000aa0:	6c5a      	ldr	r2, [r3, #68]	; 0x44
 8000aa2:	4311      	orrs	r1, r2
 8000aa4:	6459      	str	r1, [r3, #68]	; 0x44
 8000aa6:	4770      	bx	lr
 8000aa8:	40023800 	.word	0x40023800

08000aac <MSPI_VidInit>:
 8000aac:	4b12      	ldr	r3, [pc, #72]	; (8000af8 <MSPI_VidInit+0x4c>)
 8000aae:	681a      	ldr	r2, [r3, #0]
 8000ab0:	f022 0201 	bic.w	r2, r2, #1
 8000ab4:	601a      	str	r2, [r3, #0]
 8000ab6:	681a      	ldr	r2, [r3, #0]
 8000ab8:	f022 0202 	bic.w	r2, r2, #2
 8000abc:	601a      	str	r2, [r3, #0]
 8000abe:	681a      	ldr	r2, [r3, #0]
 8000ac0:	f042 0204 	orr.w	r2, r2, #4
 8000ac4:	601a      	str	r2, [r3, #0]
 8000ac6:	681a      	ldr	r2, [r3, #0]
 8000ac8:	f022 0280 	bic.w	r2, r2, #128	; 0x80
 8000acc:	601a      	str	r2, [r3, #0]
 8000ace:	681a      	ldr	r2, [r3, #0]
 8000ad0:	f422 7200 	bic.w	r2, r2, #512	; 0x200
 8000ad4:	601a      	str	r2, [r3, #0]
 8000ad6:	681a      	ldr	r2, [r3, #0]
 8000ad8:	f422 6200 	bic.w	r2, r2, #2048	; 0x800
 8000adc:	601a      	str	r2, [r3, #0]
 8000ade:	2200      	movs	r2, #0
 8000ae0:	605a      	str	r2, [r3, #4]
 8000ae2:	681a      	ldr	r2, [r3, #0]
 8000ae4:	f022 0238 	bic.w	r2, r2, #56	; 0x38
 8000ae8:	0412      	lsls	r2, r2, #16
 8000aea:	0c12      	lsrs	r2, r2, #16
 8000aec:	601a      	str	r2, [r3, #0]
 8000aee:	681a      	ldr	r2, [r3, #0]
 8000af0:	f042 0240 	orr.w	r2, r2, #64	; 0x40
 8000af4:	601a      	str	r2, [r3, #0]
 8000af6:	4770      	bx	lr
 8000af8:	40003800 	.word	0x40003800

08000afc <MSPI1_voidSendReceiveSynch>:
 8000afc:	4b03      	ldr	r3, [pc, #12]	; (8000b0c <MSPI1_voidSendReceiveSynch+0x10>)
 8000afe:	60d8      	str	r0, [r3, #12]
 8000b00:	689a      	ldr	r2, [r3, #8]
 8000b02:	0612      	lsls	r2, r2, #24
 8000b04:	d4fc      	bmi.n	8000b00 <MSPI1_voidSendReceiveSynch+0x4>
 8000b06:	68db      	ldr	r3, [r3, #12]
 8000b08:	700b      	strb	r3, [r1, #0]
 8000b0a:	4770      	bx	lr
 8000b0c:	40003800 	.word	0x40003800

08000b10 <STK_Init>:
 8000b10:	f04f 23e0 	mov.w	r3, #3758153728	; 0xe000e000
 8000b14:	2200      	movs	r2, #0
 8000b16:	619a      	str	r2, [r3, #24]
 8000b18:	b110      	cbz	r0, 8000b20 <STK_Init+0x10>
 8000b1a:	2801      	cmp	r0, #1
 8000b1c:	d009      	beq.n	8000b32 <STK_Init+0x22>
 8000b1e:	4770      	bx	lr
 8000b20:	691a      	ldr	r2, [r3, #16]
 8000b22:	f042 0204 	orr.w	r2, r2, #4
 8000b26:	611a      	str	r2, [r3, #16]
 8000b28:	4b06      	ldr	r3, [pc, #24]	; (8000b44 <STK_Init+0x34>)
 8000b2a:	f44f 527a 	mov.w	r2, #16000	; 0x3e80
 8000b2e:	601a      	str	r2, [r3, #0]
 8000b30:	4770      	bx	lr
 8000b32:	691a      	ldr	r2, [r3, #16]
 8000b34:	f022 0204 	bic.w	r2, r2, #4
 8000b38:	611a      	str	r2, [r3, #16]
 8000b3a:	4b02      	ldr	r3, [pc, #8]	; (8000b44 <STK_Init+0x34>)
 8000b3c:	f44f 62fa 	mov.w	r2, #2000	; 0x7d0
 8000b40:	e7f5      	b.n	8000b2e <STK_Init+0x1e>
 8000b42:	bf00      	nop
 8000b44:	20001420 	.word	0x20001420

08000b48 <STK_Stop>:
 8000b48:	f04f 23e0 	mov.w	r3, #3758153728	; 0xe000e000
 8000b4c:	691a      	ldr	r2, [r3, #16]
 8000b4e:	f022 0201 	bic.w	r2, r2, #1
 8000b52:	611a      	str	r2, [r3, #16]
 8000b54:	2200      	movs	r2, #0
 8000b56:	615a      	str	r2, [r3, #20]
 8000b58:	619a      	str	r2, [r3, #24]
 8000b5a:	691a      	ldr	r2, [r3, #16]
 8000b5c:	f022 0202 	bic.w	r2, r2, #2
 8000b60:	611a      	str	r2, [r3, #16]
 8000b62:	4770      	bx	lr

08000b64 <STK_DelayMs>:
 8000b64:	4b0a      	ldr	r3, [pc, #40]	; (8000b90 <STK_DelayMs+0x2c>)
 8000b66:	681b      	ldr	r3, [r3, #0]
 8000b68:	4358      	muls	r0, r3
 8000b6a:	f04f 23e0 	mov.w	r3, #3758153728	; 0xe000e000
 8000b6e:	2200      	movs	r2, #0
 8000b70:	3801      	subs	r0, #1
 8000b72:	6158      	str	r0, [r3, #20]
 8000b74:	619a      	str	r2, [r3, #24]
 8000b76:	691a      	ldr	r2, [r3, #16]
 8000b78:	f042 0201 	orr.w	r2, r2, #1
 8000b7c:	611a      	str	r2, [r3, #16]
 8000b7e:	691a      	ldr	r2, [r3, #16]
 8000b80:	03d2      	lsls	r2, r2, #15
 8000b82:	d5fc      	bpl.n	8000b7e <STK_DelayMs+0x1a>
 8000b84:	691a      	ldr	r2, [r3, #16]
 8000b86:	f022 0201 	bic.w	r2, r2, #1
 8000b8a:	611a      	str	r2, [r3, #16]
 8000b8c:	4770      	bx	lr
 8000b8e:	bf00      	nop
 8000b90:	20001420 	.word	0x20001420

08000b94 <STK_DelayUs>:
 8000b94:	4b0c      	ldr	r3, [pc, #48]	; (8000bc8 <STK_DelayUs+0x34>)
 8000b96:	f44f 727a 	mov.w	r2, #1000	; 0x3e8
 8000b9a:	681b      	ldr	r3, [r3, #0]
 8000b9c:	fbb3 f3f2 	udiv	r3, r3, r2
 8000ba0:	4358      	muls	r0, r3
 8000ba2:	f04f 23e0 	mov.w	r3, #3758153728	; 0xe000e000
 8000ba6:	2200      	movs	r2, #0
 8000ba8:	3801      	subs	r0, #1
 8000baa:	6158      	str	r0, [r3, #20]
 8000bac:	619a      	str	r2, [r3, #24]
 8000bae:	691a      	ldr	r2, [r3, #16]
 8000bb0:	f042 0201 	orr.w	r2, r2, #1
 8000bb4:	611a      	str	r2, [r3, #16]
 8000bb6:	691a      	ldr	r2, [r3, #16]
 8000bb8:	03d2      	lsls	r2, r2, #15
 8000bba:	d5fc      	bpl.n	8000bb6 <STK_DelayUs+0x22>
 8000bbc:	691a      	ldr	r2, [r3, #16]
 8000bbe:	f022 0201 	bic.w	r2, r2, #1
 8000bc2:	611a      	str	r2, [r3, #16]
 8000bc4:	4770      	bx	lr
 8000bc6:	bf00      	nop
 8000bc8:	20001420 	.word	0x20001420

08000bcc <STK_PWM>:
 8000bcc:	b538      	push	{r3, r4, r5, lr}
 8000bce:	f44f 737a 	mov.w	r3, #1000	; 0x3e8
 8000bd2:	fbb3 f0f0 	udiv	r0, r3, r0
 8000bd6:	0040      	lsls	r0, r0, #1
 8000bd8:	fb00 f401 	mul.w	r4, r0, r1
 8000bdc:	1a59      	subs	r1, r3, r1
 8000bde:	fbb4 f4f3 	udiv	r4, r4, r3
 8000be2:	4341      	muls	r1, r0
 8000be4:	fbb1 f1f3 	udiv	r1, r1, r3
 8000be8:	4b0a      	ldr	r3, [pc, #40]	; (8000c14 <STK_PWM+0x48>)
 8000bea:	4d0b      	ldr	r5, [pc, #44]	; (8000c18 <STK_PWM+0x4c>)
 8000bec:	6019      	str	r1, [r3, #0]
 8000bee:	4b0b      	ldr	r3, [pc, #44]	; (8000c1c <STK_PWM+0x50>)
 8000bf0:	602c      	str	r4, [r5, #0]
 8000bf2:	f04f 24e0 	mov.w	r4, #3758153728	; 0xe000e000
 8000bf6:	601a      	str	r2, [r3, #0]
 8000bf8:	f641 733f 	movw	r3, #7999	; 0x1f3f
 8000bfc:	6163      	str	r3, [r4, #20]
 8000bfe:	2300      	movs	r3, #0
 8000c00:	61a3      	str	r3, [r4, #24]
 8000c02:	4b07      	ldr	r3, [pc, #28]	; (8000c20 <STK_PWM+0x54>)
 8000c04:	2102      	movs	r1, #2
 8000c06:	7019      	strb	r1, [r3, #0]
 8000c08:	4790      	blx	r2
 8000c0a:	6923      	ldr	r3, [r4, #16]
 8000c0c:	f043 0303 	orr.w	r3, r3, #3
 8000c10:	6123      	str	r3, [r4, #16]
 8000c12:	bd38      	pop	{r3, r4, r5, pc}
 8000c14:	20001428 	.word	0x20001428
 8000c18:	2000142c 	.word	0x2000142c
 8000c1c:	20001430 	.word	0x20001430
 8000c20:	20001424 	.word	0x20001424

08000c24 <SysTick_Handler>:
 8000c24:	b510      	push	{r4, lr}
 8000c26:	4b19      	ldr	r3, [pc, #100]	; (8000c8c <SysTick_Handler+0x68>)
 8000c28:	781a      	ldrb	r2, [r3, #0]
 8000c2a:	2a02      	cmp	r2, #2
 8000c2c:	d01a      	beq.n	8000c64 <SysTick_Handler+0x40>
 8000c2e:	781b      	ldrb	r3, [r3, #0]
 8000c30:	f003 01ff 	and.w	r1, r3, #255	; 0xff
 8000c34:	b95b      	cbnz	r3, 8000c4e <SysTick_Handler+0x2a>
 8000c36:	f04f 23e0 	mov.w	r3, #3758153728	; 0xe000e000
 8000c3a:	691a      	ldr	r2, [r3, #16]
 8000c3c:	f022 0201 	bic.w	r2, r2, #1
 8000c40:	611a      	str	r2, [r3, #16]
 8000c42:	6159      	str	r1, [r3, #20]
 8000c44:	6199      	str	r1, [r3, #24]
 8000c46:	691a      	ldr	r2, [r3, #16]
 8000c48:	f022 0202 	bic.w	r2, r2, #2
 8000c4c:	611a      	str	r2, [r3, #16]
 8000c4e:	4b10      	ldr	r3, [pc, #64]	; (8000c90 <SysTick_Handler+0x6c>)
 8000c50:	681b      	ldr	r3, [r3, #0]
 8000c52:	4798      	blx	r3
 8000c54:	f04f 23e0 	mov.w	r3, #3758153728	; 0xe000e000
 8000c58:	4a0e      	ldr	r2, [pc, #56]	; (8000c94 <SysTick_Handler+0x70>)
 8000c5a:	691b      	ldr	r3, [r3, #16]
 8000c5c:	f3c3 4300 	ubfx	r3, r3, #16, #1
 8000c60:	7013      	strb	r3, [r2, #0]
 8000c62:	bd10      	pop	{r4, pc}
 8000c64:	4c0c      	ldr	r4, [pc, #48]	; (8000c98 <SysTick_Handler+0x74>)
 8000c66:	4a0d      	ldr	r2, [pc, #52]	; (8000c9c <SysTick_Handler+0x78>)
 8000c68:	6823      	ldr	r3, [r4, #0]
 8000c6a:	6812      	ldr	r2, [r2, #0]
 8000c6c:	3301      	adds	r3, #1
 8000c6e:	4293      	cmp	r3, r2
 8000c70:	6023      	str	r3, [r4, #0]
 8000c72:	d0ec      	beq.n	8000c4e <SysTick_Handler+0x2a>
 8000c74:	490a      	ldr	r1, [pc, #40]	; (8000ca0 <SysTick_Handler+0x7c>)
 8000c76:	6809      	ldr	r1, [r1, #0]
 8000c78:	440a      	add	r2, r1
 8000c7a:	4293      	cmp	r3, r2
 8000c7c:	d1ea      	bne.n	8000c54 <SysTick_Handler+0x30>
 8000c7e:	4b04      	ldr	r3, [pc, #16]	; (8000c90 <SysTick_Handler+0x6c>)
 8000c80:	681b      	ldr	r3, [r3, #0]
 8000c82:	4798      	blx	r3
 8000c84:	2300      	movs	r3, #0
 8000c86:	6023      	str	r3, [r4, #0]
 8000c88:	e7e4      	b.n	8000c54 <SysTick_Handler+0x30>
 8000c8a:	bf00      	nop
 8000c8c:	20001424 	.word	0x20001424
 8000c90:	20001430 	.word	0x20001430
 8000c94:	2000141c 	.word	0x2000141c
 8000c98:	20001434 	.word	0x20001434
 8000c9c:	2000142c 	.word	0x2000142c
 8000ca0:	20001428 	.word	0x20001428

08000ca4 <voidWriteData>:
 8000ca4:	b513      	push	{r0, r1, r4, lr}
 8000ca6:	2201      	movs	r2, #1
 8000ca8:	4604      	mov	r4, r0
 8000caa:	2109      	movs	r1, #9
 8000cac:	4610      	mov	r0, r2
 8000cae:	f7ff fbfd 	bl	80004ac <GPIO_vWritePinValue>
 8000cb2:	f10d 0107 	add.w	r1, sp, #7
 8000cb6:	4620      	mov	r0, r4
 8000cb8:	f7ff ff20 	bl	8000afc <MSPI1_voidSendReceiveSynch>
 8000cbc:	b002      	add	sp, #8
 8000cbe:	bd10      	pop	{r4, pc}

08000cc0 <voidWriteCommand>:
 8000cc0:	b513      	push	{r0, r1, r4, lr}
 8000cc2:	2200      	movs	r2, #0
 8000cc4:	4604      	mov	r4, r0
 8000cc6:	2109      	movs	r1, #9
 8000cc8:	2001      	movs	r0, #1
 8000cca:	f7ff fbef 	bl	80004ac <GPIO_vWritePinValue>
 8000cce:	f10d 0107 	add.w	r1, sp, #7
 8000cd2:	4620      	mov	r0, r4
 8000cd4:	f7ff ff12 	bl	8000afc <MSPI1_voidSendReceiveSynch>
 8000cd8:	b002      	add	sp, #8
 8000cda:	bd10      	pop	{r4, pc}

08000cdc <TFT_vSetCursorPosition>:
 8000cdc:	b5f8      	push	{r3, r4, r5, r6, r7, lr}
 8000cde:	4607      	mov	r7, r0
 8000ce0:	202a      	movs	r0, #42	; 0x2a
 8000ce2:	460d      	mov	r5, r1
 8000ce4:	461c      	mov	r4, r3
 8000ce6:	4616      	mov	r6, r2
 8000ce8:	f7ff ffea 	bl	8000cc0 <voidWriteCommand>
 8000cec:	2000      	movs	r0, #0
 8000cee:	f7ff ffd9 	bl	8000ca4 <voidWriteData>
 8000cf2:	4638      	mov	r0, r7
 8000cf4:	f7ff ffd6 	bl	8000ca4 <voidWriteData>
 8000cf8:	2000      	movs	r0, #0
 8000cfa:	f7ff ffd3 	bl	8000ca4 <voidWriteData>
 8000cfe:	4630      	mov	r0, r6
 8000d00:	f7ff ffd0 	bl	8000ca4 <voidWriteData>
 8000d04:	202b      	movs	r0, #43	; 0x2b
 8000d06:	f7ff ffdb 	bl	8000cc0 <voidWriteCommand>
 8000d0a:	0a28      	lsrs	r0, r5, #8
 8000d0c:	f7ff ffca 	bl	8000ca4 <voidWriteData>
 8000d10:	b2e8      	uxtb	r0, r5
 8000d12:	f7ff ffc7 	bl	8000ca4 <voidWriteData>
 8000d16:	0a20      	lsrs	r0, r4, #8
 8000d18:	f7ff ffc4 	bl	8000ca4 <voidWriteData>
 8000d1c:	b2e0      	uxtb	r0, r4
 8000d1e:	e8bd 40f8 	ldmia.w	sp!, {r3, r4, r5, r6, r7, lr}
 8000d22:	f7ff bfbf 	b.w	8000ca4 <voidWriteData>

08000d26 <TFT_vDrawRectangular>:
 8000d26:	b5f8      	push	{r3, r4, r5, r6, r7, lr}
 8000d28:	460f      	mov	r7, r1
 8000d2a:	1a9c      	subs	r4, r3, r2
 8000d2c:	4611      	mov	r1, r2
 8000d2e:	463a      	mov	r2, r7
 8000d30:	1a3d      	subs	r5, r7, r0
 8000d32:	f8bd 6018 	ldrh.w	r6, [sp, #24]
 8000d36:	f7ff ffd1 	bl	8000cdc <TFT_vSetCursorPosition>
 8000d3a:	202c      	movs	r0, #44	; 0x2c
 8000d3c:	f7ff ffc0 	bl	8000cc0 <voidWriteCommand>
 8000d40:	436c      	muls	r4, r5
 8000d42:	0a37      	lsrs	r7, r6, #8
 8000d44:	2500      	movs	r5, #0
 8000d46:	b2f6      	uxtb	r6, r6
 8000d48:	3405      	adds	r4, #5
 8000d4a:	4638      	mov	r0, r7
 8000d4c:	f7ff ffaa 	bl	8000ca4 <voidWriteData>
 8000d50:	3501      	adds	r5, #1
 8000d52:	4630      	mov	r0, r6
 8000d54:	f7ff ffa6 	bl	8000ca4 <voidWriteData>
 8000d58:	42ac      	cmp	r4, r5
 8000d5a:	d8f6      	bhi.n	8000d4a <TFT_vDrawRectangular+0x24>
 8000d5c:	bdf8      	pop	{r3, r4, r5, r6, r7, pc}

08000d5e <TFT_vDrawPixel>:
 8000d5e:	b510      	push	{r4, lr}
 8000d60:	460b      	mov	r3, r1
 8000d62:	4614      	mov	r4, r2
 8000d64:	4602      	mov	r2, r0
 8000d66:	f7ff ffb9 	bl	8000cdc <TFT_vSetCursorPosition>
 8000d6a:	202c      	movs	r0, #44	; 0x2c
 8000d6c:	f7ff ffa8 	bl	8000cc0 <voidWriteCommand>
 8000d70:	0a20      	lsrs	r0, r4, #8
 8000d72:	f7ff ff97 	bl	8000ca4 <voidWriteData>
 8000d76:	b2e0      	uxtb	r0, r4
 8000d78:	e8bd 4010 	ldmia.w	sp!, {r4, lr}
 8000d7c:	f7ff bf92 	b.w	8000ca4 <voidWriteData>

08000d80 <TFT_vDrawHLine>:
 8000d80:	e92d 41f0 	stmdb	sp!, {r4, r5, r6, r7, r8, lr}
 8000d84:	4606      	mov	r6, r0
 8000d86:	4688      	mov	r8, r1
 8000d88:	461f      	mov	r7, r3
 8000d8a:	2400      	movs	r4, #0
 8000d8c:	4615      	mov	r5, r2
 8000d8e:	b2a3      	uxth	r3, r4
 8000d90:	429d      	cmp	r5, r3
 8000d92:	d801      	bhi.n	8000d98 <TFT_vDrawHLine+0x18>
 8000d94:	e8bd 81f0 	ldmia.w	sp!, {r4, r5, r6, r7, r8, pc}
 8000d98:	1930      	adds	r0, r6, r4
 8000d9a:	463a      	mov	r2, r7
 8000d9c:	4641      	mov	r1, r8
 8000d9e:	b2c0      	uxtb	r0, r0
 8000da0:	f7ff ffdd 	bl	8000d5e <TFT_vDrawPixel>
 8000da4:	3401      	adds	r4, #1
 8000da6:	e7f2      	b.n	8000d8e <TFT_vDrawHLine+0xe>

08000da8 <TFT_vDrawStar.constprop.0>:
 8000da8:	b5f8      	push	{r3, r4, r5, r6, r7, lr}
 8000daa:	220b      	movs	r2, #11
 8000dac:	460b      	mov	r3, r1
 8000dae:	460d      	mov	r5, r1
 8000db0:	21b5      	movs	r1, #181	; 0xb5
 8000db2:	4606      	mov	r6, r0
 8000db4:	f7ff ffe4 	bl	8000d80 <TFT_vDrawHLine>
 8000db8:	1d77      	adds	r7, r6, #5
 8000dba:	b2ff      	uxtb	r7, r7
 8000dbc:	24b0      	movs	r4, #176	; 0xb0
 8000dbe:	4621      	mov	r1, r4
 8000dc0:	3401      	adds	r4, #1
 8000dc2:	462a      	mov	r2, r5
 8000dc4:	4638      	mov	r0, r7
 8000dc6:	b2a4      	uxth	r4, r4
 8000dc8:	f7ff ffc9 	bl	8000d5e <TFT_vDrawPixel>
 8000dcc:	2cbb      	cmp	r4, #187	; 0xbb
 8000dce:	d1f6      	bne.n	8000dbe <TFT_vDrawStar.constprop.0+0x16>
 8000dd0:	2401      	movs	r4, #1
 8000dd2:	1f23      	subs	r3, r4, #4
 8000dd4:	2b02      	cmp	r3, #2
 8000dd6:	d907      	bls.n	8000de8 <TFT_vDrawStar.constprop.0+0x40>
 8000dd8:	f104 01b0 	add.w	r1, r4, #176	; 0xb0
 8000ddc:	1930      	adds	r0, r6, r4
 8000dde:	462a      	mov	r2, r5
 8000de0:	b289      	uxth	r1, r1
 8000de2:	b2c0      	uxtb	r0, r0
 8000de4:	f7ff ffbb 	bl	8000d5e <TFT_vDrawPixel>
 8000de8:	3401      	adds	r4, #1
 8000dea:	2c0a      	cmp	r4, #10
 8000dec:	d1f1      	bne.n	8000dd2 <TFT_vDrawStar.constprop.0+0x2a>
 8000dee:	2401      	movs	r4, #1
 8000df0:	1f23      	subs	r3, r4, #4
 8000df2:	2b02      	cmp	r3, #2
 8000df4:	d907      	bls.n	8000e06 <TFT_vDrawStar.constprop.0+0x5e>
 8000df6:	f1c4 01ba 	rsb	r1, r4, #186	; 0xba
 8000dfa:	1930      	adds	r0, r6, r4
 8000dfc:	462a      	mov	r2, r5
 8000dfe:	b289      	uxth	r1, r1
 8000e00:	b2c0      	uxtb	r0, r0
 8000e02:	f7ff ffac 	bl	8000d5e <TFT_vDrawPixel>
 8000e06:	3401      	adds	r4, #1
 8000e08:	2c0a      	cmp	r4, #10
 8000e0a:	d1f1      	bne.n	8000df0 <TFT_vDrawStar.constprop.0+0x48>
 8000e0c:	bdf8      	pop	{r3, r4, r5, r6, r7, pc}
	...

08000e10 <TFT_voidInit>:
 8000e10:	b508      	push	{r3, lr}
 8000e12:	2202      	movs	r2, #2
 8000e14:	210a      	movs	r1, #10
 8000e16:	2001      	movs	r0, #1
 8000e18:	f7ff fabc 	bl	8000394 <GPIO_vSetMode>
 8000e1c:	2202      	movs	r2, #2
 8000e1e:	210f      	movs	r1, #15
 8000e20:	2001      	movs	r0, #1
 8000e22:	f7ff fab7 	bl	8000394 <GPIO_vSetMode>
 8000e26:	2201      	movs	r2, #1
 8000e28:	4611      	mov	r1, r2
 8000e2a:	4610      	mov	r0, r2
 8000e2c:	f7ff fab2 	bl	8000394 <GPIO_vSetMode>
 8000e30:	2201      	movs	r2, #1
 8000e32:	4610      	mov	r0, r2
 8000e34:	2109      	movs	r1, #9
 8000e36:	f7ff faad 	bl	8000394 <GPIO_vSetMode>
 8000e3a:	2205      	movs	r2, #5
 8000e3c:	210a      	movs	r1, #10
 8000e3e:	2001      	movs	r0, #1
 8000e40:	f7ff fb04 	bl	800044c <GPIO_vSetAlternateFunction>
 8000e44:	2205      	movs	r2, #5
 8000e46:	210f      	movs	r1, #15
 8000e48:	2001      	movs	r0, #1
 8000e4a:	f7ff faff 	bl	800044c <GPIO_vSetAlternateFunction>
 8000e4e:	2000      	movs	r0, #0
 8000e50:	f7ff fe5e 	bl	8000b10 <STK_Init>
 8000e54:	2201      	movs	r2, #1
 8000e56:	4611      	mov	r1, r2
 8000e58:	4610      	mov	r0, r2
 8000e5a:	f7ff fb27 	bl	80004ac <GPIO_vWritePinValue>
 8000e5e:	2064      	movs	r0, #100	; 0x64
 8000e60:	f7ff fe98 	bl	8000b94 <STK_DelayUs>
 8000e64:	2101      	movs	r1, #1
 8000e66:	4608      	mov	r0, r1
 8000e68:	2200      	movs	r2, #0
 8000e6a:	f7ff fb1f 	bl	80004ac <GPIO_vWritePinValue>
 8000e6e:	2001      	movs	r0, #1
 8000e70:	f7ff fe90 	bl	8000b94 <STK_DelayUs>
 8000e74:	2201      	movs	r2, #1
 8000e76:	4611      	mov	r1, r2
 8000e78:	4610      	mov	r0, r2
 8000e7a:	f7ff fb17 	bl	80004ac <GPIO_vWritePinValue>
 8000e7e:	2064      	movs	r0, #100	; 0x64
 8000e80:	f7ff fe88 	bl	8000b94 <STK_DelayUs>
 8000e84:	2101      	movs	r1, #1
 8000e86:	4608      	mov	r0, r1
 8000e88:	2200      	movs	r2, #0
 8000e8a:	f7ff fb0f 	bl	80004ac <GPIO_vWritePinValue>
 8000e8e:	2064      	movs	r0, #100	; 0x64
 8000e90:	f7ff fe80 	bl	8000b94 <STK_DelayUs>
 8000e94:	2201      	movs	r2, #1
 8000e96:	4610      	mov	r0, r2
 8000e98:	4611      	mov	r1, r2
 8000e9a:	f7ff fb07 	bl	80004ac <GPIO_vWritePinValue>
 8000e9e:	4807      	ldr	r0, [pc, #28]	; (8000ebc <TFT_voidInit+0xac>)
 8000ea0:	f7ff fe78 	bl	8000b94 <STK_DelayUs>
 8000ea4:	203a      	movs	r0, #58	; 0x3a
 8000ea6:	f7ff ff0b 	bl	8000cc0 <voidWriteCommand>
 8000eaa:	2005      	movs	r0, #5
 8000eac:	f7ff fefa 	bl	8000ca4 <voidWriteData>
 8000eb0:	e8bd 4008 	ldmia.w	sp!, {r3, lr}
 8000eb4:	2029      	movs	r0, #41	; 0x29
 8000eb6:	f7ff bf03 	b.w	8000cc0 <voidWriteCommand>
 8000eba:	bf00      	nop
 8000ebc:	0001d4c0 	.word	0x0001d4c0

08000ec0 <TFT_vDrawPic>:
 8000ec0:	b570      	push	{r4, r5, r6, lr}
 8000ec2:	460e      	mov	r6, r1
 8000ec4:	1a9c      	subs	r4, r3, r2
 8000ec6:	4611      	mov	r1, r2
 8000ec8:	4632      	mov	r2, r6
 8000eca:	1a35      	subs	r5, r6, r0
 8000ecc:	f7ff ff06 	bl	8000cdc <TFT_vSetCursorPosition>
 8000ed0:	202c      	movs	r0, #44	; 0x2c
 8000ed2:	436c      	muls	r4, r5
 8000ed4:	f7ff fef4 	bl	8000cc0 <voidWriteCommand>
 8000ed8:	9d04      	ldr	r5, [sp, #16]
 8000eda:	2600      	movs	r6, #0
 8000edc:	3d02      	subs	r5, #2
 8000ede:	3c05      	subs	r4, #5
 8000ee0:	42b4      	cmp	r4, r6
 8000ee2:	d800      	bhi.n	8000ee6 <TFT_vDrawPic+0x26>
 8000ee4:	bd70      	pop	{r4, r5, r6, pc}
 8000ee6:	f835 0f02 	ldrh.w	r0, [r5, #2]!
 8000eea:	0a00      	lsrs	r0, r0, #8
 8000eec:	f7ff feda 	bl	8000ca4 <voidWriteData>
 8000ef0:	7828      	ldrb	r0, [r5, #0]
 8000ef2:	f7ff fed7 	bl	8000ca4 <voidWriteData>
 8000ef6:	3601      	adds	r6, #1
 8000ef8:	e7f2      	b.n	8000ee0 <TFT_vDrawPic+0x20>
	...

08000efc <HTFT_vDrawKeyPad>:
 8000efc:	b507      	push	{r0, r1, r2, lr}
 8000efe:	4b05      	ldr	r3, [pc, #20]	; (8000f14 <HTFT_vDrawKeyPad+0x18>)
 8000f00:	9300      	str	r3, [sp, #0]
 8000f02:	22c8      	movs	r2, #200	; 0xc8
 8000f04:	23f8      	movs	r3, #248	; 0xf8
 8000f06:	21c0      	movs	r1, #192	; 0xc0
 8000f08:	2034      	movs	r0, #52	; 0x34
 8000f0a:	f7ff ffd9 	bl	8000ec0 <TFT_vDrawPic>
 8000f0e:	b003      	add	sp, #12
 8000f10:	f85d fb04 	ldr.w	pc, [sp], #4
 8000f14:	0800cb10 	.word	0x0800cb10

08000f18 <TFT_vClearScreen>:
 8000f18:	b507      	push	{r0, r1, r2, lr}
 8000f1a:	f64f 73ff 	movw	r3, #65535	; 0xffff
 8000f1e:	2200      	movs	r2, #0
 8000f20:	9300      	str	r3, [sp, #0]
 8000f22:	21f0      	movs	r1, #240	; 0xf0
 8000f24:	f44f 7396 	mov.w	r3, #300	; 0x12c
 8000f28:	4610      	mov	r0, r2
 8000f2a:	f7ff fefc 	bl	8000d26 <TFT_vDrawRectangular>
 8000f2e:	b003      	add	sp, #12
 8000f30:	f85d fb04 	ldr.w	pc, [sp], #4

08000f34 <TFT_vToggle>:
 8000f34:	b507      	push	{r0, r1, r2, lr}
 8000f36:	4b1f      	ldr	r3, [pc, #124]	; (8000fb4 <TFT_vToggle+0x80>)
 8000f38:	5c1a      	ldrb	r2, [r3, r0]
 8000f3a:	2a01      	cmp	r2, #1
 8000f3c:	bf14      	ite	ne
 8000f3e:	2201      	movne	r2, #1
 8000f40:	2200      	moveq	r2, #0
 8000f42:	541a      	strb	r2, [r3, r0]
 8000f44:	f100 30ff 	add.w	r0, r0, #4294967295
 8000f48:	d025      	beq.n	8000f96 <TFT_vToggle+0x62>
 8000f4a:	2803      	cmp	r0, #3
 8000f4c:	d80b      	bhi.n	8000f66 <TFT_vToggle+0x32>
 8000f4e:	e8df f000 	tbb	[pc, r0]
 8000f52:	0d02      	.short	0x0d02
 8000f54:	1b14      	.short	0x1b14
 8000f56:	4b18      	ldr	r3, [pc, #96]	; (8000fb8 <TFT_vToggle+0x84>)
 8000f58:	9300      	str	r3, [sp, #0]
 8000f5a:	2214      	movs	r2, #20
 8000f5c:	233c      	movs	r3, #60	; 0x3c
 8000f5e:	21e6      	movs	r1, #230	; 0xe6
 8000f60:	20c8      	movs	r0, #200	; 0xc8
 8000f62:	f7ff ffad 	bl	8000ec0 <TFT_vDrawPic>
 8000f66:	b003      	add	sp, #12
 8000f68:	f85d fb04 	ldr.w	pc, [sp], #4
 8000f6c:	4b12      	ldr	r3, [pc, #72]	; (8000fb8 <TFT_vToggle+0x84>)
 8000f6e:	9300      	str	r3, [sp, #0]
 8000f70:	2214      	movs	r2, #20
 8000f72:	233c      	movs	r3, #60	; 0x3c
 8000f74:	21c8      	movs	r1, #200	; 0xc8
 8000f76:	20aa      	movs	r0, #170	; 0xaa
 8000f78:	e7f3      	b.n	8000f62 <TFT_vToggle+0x2e>
 8000f7a:	4b0f      	ldr	r3, [pc, #60]	; (8000fb8 <TFT_vToggle+0x84>)
 8000f7c:	9300      	str	r3, [sp, #0]
 8000f7e:	2214      	movs	r2, #20
 8000f80:	233c      	movs	r3, #60	; 0x3c
 8000f82:	21aa      	movs	r1, #170	; 0xaa
 8000f84:	208c      	movs	r0, #140	; 0x8c
 8000f86:	e7ec      	b.n	8000f62 <TFT_vToggle+0x2e>
 8000f88:	4b0b      	ldr	r3, [pc, #44]	; (8000fb8 <TFT_vToggle+0x84>)
 8000f8a:	9300      	str	r3, [sp, #0]
 8000f8c:	2214      	movs	r2, #20
 8000f8e:	233c      	movs	r3, #60	; 0x3c
 8000f90:	218c      	movs	r1, #140	; 0x8c
 8000f92:	206e      	movs	r0, #110	; 0x6e
 8000f94:	e7e5      	b.n	8000f62 <TFT_vToggle+0x2e>
 8000f96:	2803      	cmp	r0, #3
 8000f98:	d8e5      	bhi.n	8000f66 <TFT_vToggle+0x32>
 8000f9a:	e8df f000 	tbb	[pc, r0]
 8000f9e:	0402      	.short	0x0402
 8000fa0:	0806      	.short	0x0806
 8000fa2:	4b06      	ldr	r3, [pc, #24]	; (8000fbc <TFT_vToggle+0x88>)
 8000fa4:	e7d8      	b.n	8000f58 <TFT_vToggle+0x24>
 8000fa6:	4b05      	ldr	r3, [pc, #20]	; (8000fbc <TFT_vToggle+0x88>)
 8000fa8:	e7e1      	b.n	8000f6e <TFT_vToggle+0x3a>
 8000faa:	4b04      	ldr	r3, [pc, #16]	; (8000fbc <TFT_vToggle+0x88>)
 8000fac:	e7e6      	b.n	8000f7c <TFT_vToggle+0x48>
 8000fae:	4b03      	ldr	r3, [pc, #12]	; (8000fbc <TFT_vToggle+0x88>)
 8000fb0:	e7eb      	b.n	8000f8a <TFT_vToggle+0x56>
 8000fb2:	bf00      	nop
 8000fb4:	20001438 	.word	0x20001438
 8000fb8:	200009b0 	.word	0x200009b0
 8000fbc:	20000000 	.word	0x20000000

08000fc0 <TFT_vDoorOpened>:
 8000fc0:	b507      	push	{r0, r1, r2, lr}
 8000fc2:	4b05      	ldr	r3, [pc, #20]	; (8000fd8 <TFT_vDoorOpened+0x18>)
 8000fc4:	9300      	str	r3, [sp, #0]
 8000fc6:	2250      	movs	r2, #80	; 0x50
 8000fc8:	2391      	movs	r3, #145	; 0x91
 8000fca:	21e6      	movs	r1, #230	; 0xe6
 8000fcc:	2082      	movs	r0, #130	; 0x82
 8000fce:	f7ff ff77 	bl	8000ec0 <TFT_vDrawPic>
 8000fd2:	b003      	add	sp, #12
 8000fd4:	f85d fb04 	ldr.w	pc, [sp], #4
 8000fd8:	08008fe2 	.word	0x08008fe2

08000fdc <TFT_vDoorClosed>:
 8000fdc:	b507      	push	{r0, r1, r2, lr}
 8000fde:	4b05      	ldr	r3, [pc, #20]	; (8000ff4 <TFT_vDoorClosed+0x18>)
 8000fe0:	9300      	str	r3, [sp, #0]
 8000fe2:	2250      	movs	r2, #80	; 0x50
 8000fe4:	2391      	movs	r3, #145	; 0x91
 8000fe6:	21e6      	movs	r1, #230	; 0xe6
 8000fe8:	2082      	movs	r0, #130	; 0x82
 8000fea:	f7ff ff69 	bl	8000ec0 <TFT_vDrawPic>
 8000fee:	b003      	add	sp, #12
 8000ff0:	f85d fb04 	ldr.w	pc, [sp], #4
 8000ff4:	080054b4 	.word	0x080054b4

08000ff8 <TFT_vDrawAirConditioner>:
 8000ff8:	b507      	push	{r0, r1, r2, lr}
 8000ffa:	4b05      	ldr	r3, [pc, #20]	; (8001010 <TFT_vDrawAirConditioner+0x18>)
 8000ffc:	9300      	str	r3, [sp, #0]
 8000ffe:	22a8      	movs	r2, #168	; 0xa8
 8001000:	23da      	movs	r3, #218	; 0xda
 8001002:	21eb      	movs	r1, #235	; 0xeb
 8001004:	20a0      	movs	r0, #160	; 0xa0
 8001006:	f7ff ff5b 	bl	8000ec0 <TFT_vDrawPic>
 800100a:	b003      	add	sp, #12
 800100c:	f85d fb04 	ldr.w	pc, [sp], #4
 8001010:	08001914 	.word	0x08001914

08001014 <TFT_vDrawAcButton>:
 8001014:	b510      	push	{r4, lr}
 8001016:	24b9      	movs	r4, #185	; 0xb9
 8001018:	b2e0      	uxtb	r0, r4
 800101a:	0042      	lsls	r2, r0, #1
 800101c:	4621      	mov	r1, r4
 800101e:	3a5b      	subs	r2, #91	; 0x5b
 8001020:	f1c0 0035 	rsb	r0, r0, #53	; 0x35
 8001024:	3c01      	subs	r4, #1
 8001026:	f44f 7308 	mov.w	r3, #544	; 0x220
 800102a:	b2d2      	uxtb	r2, r2
 800102c:	b2c0      	uxtb	r0, r0
 800102e:	b2a4      	uxth	r4, r4
 8001030:	f7ff fea6 	bl	8000d80 <TFT_vDrawHLine>
 8001034:	2cad      	cmp	r4, #173	; 0xad
 8001036:	d1ef      	bne.n	8001018 <TFT_vDrawAcButton+0x4>
 8001038:	24be      	movs	r4, #190	; 0xbe
 800103a:	b2e0      	uxtb	r0, r4
 800103c:	ebc0 12c0 	rsb	r2, r0, r0, lsl #7
 8001040:	0052      	lsls	r2, r2, #1
 8001042:	4621      	mov	r1, r4
 8001044:	3a6d      	subs	r2, #109	; 0x6d
 8001046:	3842      	subs	r0, #66	; 0x42
 8001048:	3401      	adds	r4, #1
 800104a:	f64f 6386 	movw	r3, #65158	; 0xfe86
 800104e:	b2d2      	uxtb	r2, r2
 8001050:	b2c0      	uxtb	r0, r0
 8001052:	b2a4      	uxth	r4, r4
 8001054:	f7ff fe94 	bl	8000d80 <TFT_vDrawHLine>
 8001058:	2cca      	cmp	r4, #202	; 0xca
 800105a:	d1ee      	bne.n	800103a <TFT_vDrawAcButton+0x26>
 800105c:	bd10      	pop	{r4, pc}
	...

08001060 <TFT_vControlDimmerLed>:
 8001060:	b570      	push	{r4, r5, r6, lr}
 8001062:	233c      	movs	r3, #60	; 0x3c
 8001064:	4604      	mov	r4, r0
 8001066:	2250      	movs	r2, #80	; 0x50
 8001068:	2114      	movs	r1, #20
 800106a:	2032      	movs	r0, #50	; 0x32
 800106c:	f7ff fe36 	bl	8000cdc <TFT_vSetCursorPosition>
 8001070:	202c      	movs	r0, #44	; 0x2c
 8001072:	f7ff fe25 	bl	8000cc0 <voidWriteCommand>
 8001076:	2c96      	cmp	r4, #150	; 0x96
 8001078:	d01e      	beq.n	80010b8 <TFT_vControlDimmerLed+0x58>
 800107a:	d816      	bhi.n	80010aa <TFT_vControlDimmerLed+0x4a>
 800107c:	2c32      	cmp	r4, #50	; 0x32
 800107e:	d01d      	beq.n	80010bc <TFT_vControlDimmerLed+0x5c>
 8001080:	2c64      	cmp	r4, #100	; 0x64
 8001082:	bf14      	ite	ne
 8001084:	2000      	movne	r0, #0
 8001086:	20f5      	moveq	r0, #245	; 0xf5
 8001088:	4e11      	ldr	r6, [pc, #68]	; (80010d0 <TFT_vControlDimmerLed+0x70>)
 800108a:	2500      	movs	r5, #0
 800108c:	b2c4      	uxtb	r4, r0
 800108e:	f836 0b02 	ldrh.w	r0, [r6], #2
 8001092:	b9b8      	cbnz	r0, 80010c4 <TFT_vControlDimmerLed+0x64>
 8001094:	f7ff fe06 	bl	8000ca4 <voidWriteData>
 8001098:	4620      	mov	r0, r4
 800109a:	f7ff fe03 	bl	8000ca4 <voidWriteData>
 800109e:	3501      	adds	r5, #1
 80010a0:	f240 43aa 	movw	r3, #1194	; 0x4aa
 80010a4:	429d      	cmp	r5, r3
 80010a6:	d1f2      	bne.n	800108e <TFT_vControlDimmerLed+0x2e>
 80010a8:	bd70      	pop	{r4, r5, r6, pc}
 80010aa:	2cc8      	cmp	r4, #200	; 0xc8
 80010ac:	d008      	beq.n	80010c0 <TFT_vControlDimmerLed+0x60>
 80010ae:	2cfa      	cmp	r4, #250	; 0xfa
 80010b0:	bf14      	ite	ne
 80010b2:	2000      	movne	r0, #0
 80010b4:	20ff      	moveq	r0, #255	; 0xff
 80010b6:	e7e7      	b.n	8001088 <TFT_vControlDimmerLed+0x28>
 80010b8:	20f7      	movs	r0, #247	; 0xf7
 80010ba:	e7e5      	b.n	8001088 <TFT_vControlDimmerLed+0x28>
 80010bc:	20f2      	movs	r0, #242	; 0xf2
 80010be:	e7e3      	b.n	8001088 <TFT_vControlDimmerLed+0x28>
 80010c0:	20f9      	movs	r0, #249	; 0xf9
 80010c2:	e7e1      	b.n	8001088 <TFT_vControlDimmerLed+0x28>
 80010c4:	20ff      	movs	r0, #255	; 0xff
 80010c6:	f7ff fded 	bl	8000ca4 <voidWriteData>
 80010ca:	20ff      	movs	r0, #255	; 0xff
 80010cc:	e7e5      	b.n	800109a <TFT_vControlDimmerLed+0x3a>
 80010ce:	bf00      	nop
 80010d0:	08004b04 	.word	0x08004b04

080010d4 <TFT_vUserPanel>:
 80010d4:	b537      	push	{r0, r1, r2, r4, r5, lr}
 80010d6:	f7ff ff1f 	bl	8000f18 <TFT_vClearScreen>
 80010da:	4d1d      	ldr	r5, [pc, #116]	; (8001150 <TFT_vUserPanel+0x7c>)
 80010dc:	2406      	movs	r4, #6
 80010de:	233c      	movs	r3, #60	; 0x3c
 80010e0:	2214      	movs	r2, #20
 80010e2:	21e6      	movs	r1, #230	; 0xe6
 80010e4:	20c8      	movs	r0, #200	; 0xc8
 80010e6:	9500      	str	r5, [sp, #0]
 80010e8:	f7ff feea 	bl	8000ec0 <TFT_vDrawPic>
 80010ec:	233c      	movs	r3, #60	; 0x3c
 80010ee:	2214      	movs	r2, #20
 80010f0:	21c8      	movs	r1, #200	; 0xc8
 80010f2:	20aa      	movs	r0, #170	; 0xaa
 80010f4:	9500      	str	r5, [sp, #0]
 80010f6:	f7ff fee3 	bl	8000ec0 <TFT_vDrawPic>
 80010fa:	233c      	movs	r3, #60	; 0x3c
 80010fc:	2214      	movs	r2, #20
 80010fe:	21aa      	movs	r1, #170	; 0xaa
 8001100:	208c      	movs	r0, #140	; 0x8c
 8001102:	9500      	str	r5, [sp, #0]
 8001104:	f7ff fedc 	bl	8000ec0 <TFT_vDrawPic>
 8001108:	3c01      	subs	r4, #1
 800110a:	9500      	str	r5, [sp, #0]
 800110c:	233c      	movs	r3, #60	; 0x3c
 800110e:	2214      	movs	r2, #20
 8001110:	218c      	movs	r1, #140	; 0x8c
 8001112:	206e      	movs	r0, #110	; 0x6e
 8001114:	f7ff fed4 	bl	8000ec0 <TFT_vDrawPic>
 8001118:	f014 04ff 	ands.w	r4, r4, #255	; 0xff
 800111c:	d1df      	bne.n	80010de <TFT_vUserPanel+0xa>
 800111e:	f7ff ff5d 	bl	8000fdc <TFT_vDoorClosed>
 8001122:	f7ff ff77 	bl	8001014 <TFT_vDrawAcButton>
 8001126:	f7ff ff67 	bl	8000ff8 <TFT_vDrawAirConditioner>
 800112a:	4b0a      	ldr	r3, [pc, #40]	; (8001154 <TFT_vUserPanel+0x80>)
 800112c:	9300      	str	r3, [sp, #0]
 800112e:	2214      	movs	r2, #20
 8001130:	233c      	movs	r3, #60	; 0x3c
 8001132:	2150      	movs	r1, #80	; 0x50
 8001134:	2032      	movs	r0, #50	; 0x32
 8001136:	f7ff fec3 	bl	8000ec0 <TFT_vDrawPic>
 800113a:	4b07      	ldr	r3, [pc, #28]	; (8001158 <TFT_vUserPanel+0x84>)
 800113c:	9300      	str	r3, [sp, #0]
 800113e:	22dc      	movs	r2, #220	; 0xdc
 8001140:	23f7      	movs	r3, #247	; 0xf7
 8001142:	2169      	movs	r1, #105	; 0x69
 8001144:	200a      	movs	r0, #10
 8001146:	f7ff febb 	bl	8000ec0 <TFT_vDrawPic>
 800114a:	b003      	add	sp, #12
 800114c:	bd30      	pop	{r4, r5, pc}
 800114e:	bf00      	nop
 8001150:	20000000 	.word	0x20000000
 8001154:	08004b04 	.word	0x08004b04
 8001158:	080036c4 	.word	0x080036c4

0800115c <TFT_vDrawPassword>:
 800115c:	eb00 1000 	add.w	r0, r0, r0, lsl #4
 8001160:	304b      	adds	r0, #75	; 0x4b
 8001162:	2110      	movs	r1, #16
 8001164:	b2c0      	uxtb	r0, r0
 8001166:	f7ff be1f 	b.w	8000da8 <TFT_vDrawStar.constprop.0>
	...

0800116c <TFT_vPasswordPanel>:
 800116c:	b507      	push	{r0, r1, r2, lr}
 800116e:	f7ff fed3 	bl	8000f18 <TFT_vClearScreen>
 8001172:	4b06      	ldr	r3, [pc, #24]	; (800118c <TFT_vPasswordPanel+0x20>)
 8001174:	9300      	str	r3, [sp, #0]
 8001176:	227d      	movs	r2, #125	; 0x7d
 8001178:	23c3      	movs	r3, #195	; 0xc3
 800117a:	219b      	movs	r1, #155	; 0x9b
 800117c:	2055      	movs	r0, #85	; 0x55
 800117e:	f7ff fe9f 	bl	8000ec0 <TFT_vDrawPic>
 8001182:	b003      	add	sp, #12
 8001184:	f85d eb04 	ldr.w	lr, [sp], #4
 8001188:	f7ff beb8 	b.w	8000efc <HTFT_vDrawKeyPad>
 800118c:	0801354a 	.word	0x0801354a

08001190 <TFT_vChangePasswordPanel>:
 8001190:	b507      	push	{r0, r1, r2, lr}
 8001192:	f7ff fec1 	bl	8000f18 <TFT_vClearScreen>
 8001196:	4b0a      	ldr	r3, [pc, #40]	; (80011c0 <TFT_vChangePasswordPanel+0x30>)
 8001198:	9300      	str	r3, [sp, #0]
 800119a:	2237      	movs	r2, #55	; 0x37
 800119c:	2368      	movs	r3, #104	; 0x68
 800119e:	21b4      	movs	r1, #180	; 0xb4
 80011a0:	203c      	movs	r0, #60	; 0x3c
 80011a2:	f7ff fe8d 	bl	8000ec0 <TFT_vDrawPic>
 80011a6:	4b07      	ldr	r3, [pc, #28]	; (80011c4 <TFT_vChangePasswordPanel+0x34>)
 80011a8:	9300      	str	r3, [sp, #0]
 80011aa:	227d      	movs	r2, #125	; 0x7d
 80011ac:	23c3      	movs	r3, #195	; 0xc3
 80011ae:	219b      	movs	r1, #155	; 0x9b
 80011b0:	2055      	movs	r0, #85	; 0x55
 80011b2:	f7ff fe85 	bl	8000ec0 <TFT_vDrawPic>
 80011b6:	b003      	add	sp, #12
 80011b8:	f85d eb04 	ldr.w	lr, [sp], #4
 80011bc:	f7ff be9e 	b.w	8000efc <HTFT_vDrawKeyPad>
 80011c0:	0800fff0 	.word	0x0800fff0
 80011c4:	0801354a 	.word	0x0801354a

080011c8 <TFT_vPolicePanel>:
 80011c8:	b507      	push	{r0, r1, r2, lr}
 80011ca:	f7ff fea5 	bl	8000f18 <TFT_vClearScreen>
 80011ce:	4b05      	ldr	r3, [pc, #20]	; (80011e4 <TFT_vPolicePanel+0x1c>)
 80011d0:	9300      	str	r3, [sp, #0]
 80011d2:	221e      	movs	r2, #30
 80011d4:	23f0      	movs	r3, #240	; 0xf0
 80011d6:	21dc      	movs	r1, #220	; 0xdc
 80011d8:	200f      	movs	r0, #15
 80011da:	f7ff fe71 	bl	8000ec0 <TFT_vDrawPic>
 80011de:	b003      	add	sp, #12
 80011e0:	f85d fb04 	ldr.w	pc, [sp], #4
 80011e4:	08015c1e 	.word	0x08015c1e

080011e8 <TFT_vDrawPicturesPixels>:
 80011e8:	e92d 4ff8 	stmdb	sp!, {r3, r4, r5, r6, r7, r8, r9, sl, fp, lr}
 80011ec:	1a09      	subs	r1, r1, r0
 80011ee:	9f0a      	ldr	r7, [sp, #40]	; 0x28
 80011f0:	4681      	mov	r9, r0
 80011f2:	4614      	mov	r4, r2
 80011f4:	469a      	mov	sl, r3
 80011f6:	b28d      	uxth	r5, r1
 80011f8:	f04f 0800 	mov.w	r8, #0
 80011fc:	45a2      	cmp	sl, r4
 80011fe:	d013      	beq.n	8001228 <TFT_vDrawPicturesPixels+0x40>
 8001200:	eb07 0b48 	add.w	fp, r7, r8, lsl #1
 8001204:	2600      	movs	r6, #0
 8001206:	e008      	b.n	800121a <TFT_vDrawPicturesPixels+0x32>
 8001208:	eb09 0006 	add.w	r0, r9, r6
 800120c:	f83b 2b02 	ldrh.w	r2, [fp], #2
 8001210:	4621      	mov	r1, r4
 8001212:	b2c0      	uxtb	r0, r0
 8001214:	f7ff fda3 	bl	8000d5e <TFT_vDrawPixel>
 8001218:	3601      	adds	r6, #1
 800121a:	b2b3      	uxth	r3, r6
 800121c:	429d      	cmp	r5, r3
 800121e:	d8f3      	bhi.n	8001208 <TFT_vDrawPicturesPixels+0x20>
 8001220:	3401      	adds	r4, #1
 8001222:	44a8      	add	r8, r5
 8001224:	b2a4      	uxth	r4, r4
 8001226:	e7e9      	b.n	80011fc <TFT_vDrawPicturesPixels+0x14>
 8001228:	e8bd 8ff8 	ldmia.w	sp!, {r3, r4, r5, r6, r7, r8, r9, sl, fp, pc}

0800122c <TFT_vNumberAtPosition>:
 800122c:	3a01      	subs	r2, #1
 800122e:	b513      	push	{r0, r1, r4, lr}
 8001230:	2a08      	cmp	r2, #8
 8001232:	d811      	bhi.n	8001258 <TFT_vNumberAtPosition+0x2c>
 8001234:	e8df f002 	tbb	[pc, r2]
 8001238:	1e181205 	.word	0x1e181205
 800123c:	36302a24 	.word	0x36302a24
 8001240:	3c          	.byte	0x3c
 8001241:	00          	.byte	0x00
 8001242:	4a1e      	ldr	r2, [pc, #120]	; (80012bc <TFT_vNumberAtPosition+0x90>)
 8001244:	f101 030a 	add.w	r3, r1, #10
 8001248:	f100 040a 	add.w	r4, r0, #10
 800124c:	9200      	str	r2, [sp, #0]
 800124e:	b2db      	uxtb	r3, r3
 8001250:	460a      	mov	r2, r1
 8001252:	b2e1      	uxtb	r1, r4
 8001254:	f7ff ffc8 	bl	80011e8 <TFT_vDrawPicturesPixels>
 8001258:	b002      	add	sp, #8
 800125a:	bd10      	pop	{r4, pc}
 800125c:	4a18      	ldr	r2, [pc, #96]	; (80012c0 <TFT_vNumberAtPosition+0x94>)
 800125e:	f101 030a 	add.w	r3, r1, #10
 8001262:	f100 040a 	add.w	r4, r0, #10
 8001266:	e7f1      	b.n	800124c <TFT_vNumberAtPosition+0x20>
 8001268:	4a16      	ldr	r2, [pc, #88]	; (80012c4 <TFT_vNumberAtPosition+0x98>)
 800126a:	f101 030a 	add.w	r3, r1, #10
 800126e:	f100 040a 	add.w	r4, r0, #10
 8001272:	e7eb      	b.n	800124c <TFT_vNumberAtPosition+0x20>
 8001274:	4a14      	ldr	r2, [pc, #80]	; (80012c8 <TFT_vNumberAtPosition+0x9c>)
 8001276:	f101 030a 	add.w	r3, r1, #10
 800127a:	f100 040a 	add.w	r4, r0, #10
 800127e:	e7e5      	b.n	800124c <TFT_vNumberAtPosition+0x20>
 8001280:	4a12      	ldr	r2, [pc, #72]	; (80012cc <TFT_vNumberAtPosition+0xa0>)
 8001282:	f101 030a 	add.w	r3, r1, #10
 8001286:	f100 040a 	add.w	r4, r0, #10
 800128a:	e7df      	b.n	800124c <TFT_vNumberAtPosition+0x20>
 800128c:	4a10      	ldr	r2, [pc, #64]	; (80012d0 <TFT_vNumberAtPosition+0xa4>)
 800128e:	f101 030a 	add.w	r3, r1, #10
 8001292:	f100 040a 	add.w	r4, r0, #10
 8001296:	e7d9      	b.n	800124c <TFT_vNumberAtPosition+0x20>
 8001298:	4a0e      	ldr	r2, [pc, #56]	; (80012d4 <TFT_vNumberAtPosition+0xa8>)
 800129a:	f101 030a 	add.w	r3, r1, #10
 800129e:	f100 040a 	add.w	r4, r0, #10
 80012a2:	e7d3      	b.n	800124c <TFT_vNumberAtPosition+0x20>
 80012a4:	4a0c      	ldr	r2, [pc, #48]	; (80012d8 <TFT_vNumberAtPosition+0xac>)
 80012a6:	f101 030a 	add.w	r3, r1, #10
 80012aa:	f100 040a 	add.w	r4, r0, #10
 80012ae:	e7cd      	b.n	800124c <TFT_vNumberAtPosition+0x20>
 80012b0:	4a0a      	ldr	r2, [pc, #40]	; (80012dc <TFT_vNumberAtPosition+0xb0>)
 80012b2:	f101 030a 	add.w	r3, r1, #10
 80012b6:	f100 040a 	add.w	r4, r0, #10
 80012ba:	e7c7      	b.n	800124c <TFT_vNumberAtPosition+0x20>
 80012bc:	08012e42 	.word	0x08012e42
 80012c0:	08012f0a 	.word	0x08012f0a
 80012c4:	08012fd2 	.word	0x08012fd2
 80012c8:	0801309a 	.word	0x0801309a
 80012cc:	08013162 	.word	0x08013162
 80012d0:	0801322a 	.word	0x0801322a
 80012d4:	080132f2 	.word	0x080132f2
 80012d8:	080133ba 	.word	0x080133ba
 80012dc:	08013482 	.word	0x08013482

080012e0 <TFT_vDrawTempValue>:
 80012e0:	2808      	cmp	r0, #8
 80012e2:	b570      	push	{r4, r5, r6, lr}
 80012e4:	d806      	bhi.n	80012f4 <TFT_vDrawTempValue+0x14>
 80012e6:	b2c2      	uxtb	r2, r0
 80012e8:	21af      	movs	r1, #175	; 0xaf
 80012ea:	20d2      	movs	r0, #210	; 0xd2
 80012ec:	e8bd 4070 	ldmia.w	sp!, {r4, r5, r6, lr}
 80012f0:	f7ff bf9c 	b.w	800122c <TFT_vNumberAtPosition>
 80012f4:	2862      	cmp	r0, #98	; 0x62
 80012f6:	d80d      	bhi.n	8001314 <TFT_vDrawTempValue+0x34>
 80012f8:	220a      	movs	r2, #10
 80012fa:	fbb0 f4f2 	udiv	r4, r0, r2
 80012fe:	fb02 0214 	mls	r2, r2, r4, r0
 8001302:	b2d2      	uxtb	r2, r2
 8001304:	21af      	movs	r1, #175	; 0xaf
 8001306:	20d2      	movs	r0, #210	; 0xd2
 8001308:	f7ff ff90 	bl	800122c <TFT_vNumberAtPosition>
 800130c:	b2e2      	uxtb	r2, r4
 800130e:	21af      	movs	r1, #175	; 0xaf
 8001310:	20dc      	movs	r0, #220	; 0xdc
 8001312:	e7eb      	b.n	80012ec <TFT_vDrawTempValue+0xc>
 8001314:	f240 33e6 	movw	r3, #998	; 0x3e6
 8001318:	4298      	cmp	r0, r3
 800131a:	d816      	bhi.n	800134a <TFT_vDrawTempValue+0x6a>
 800131c:	250a      	movs	r5, #10
 800131e:	fbb0 f4f5 	udiv	r4, r0, r5
 8001322:	fb05 0214 	mls	r2, r5, r4, r0
 8001326:	b2d2      	uxtb	r2, r2
 8001328:	21af      	movs	r1, #175	; 0xaf
 800132a:	20d2      	movs	r0, #210	; 0xd2
 800132c:	f7ff ff7e 	bl	800122c <TFT_vNumberAtPosition>
 8001330:	fbb4 f6f5 	udiv	r6, r4, r5
 8001334:	fb05 4216 	mls	r2, r5, r6, r4
 8001338:	b2d2      	uxtb	r2, r2
 800133a:	21af      	movs	r1, #175	; 0xaf
 800133c:	20dc      	movs	r0, #220	; 0xdc
 800133e:	f7ff ff75 	bl	800122c <TFT_vNumberAtPosition>
 8001342:	b2f2      	uxtb	r2, r6
 8001344:	21af      	movs	r1, #175	; 0xaf
 8001346:	20e6      	movs	r0, #230	; 0xe6
 8001348:	e7d0      	b.n	80012ec <TFT_vDrawTempValue+0xc>
 800134a:	bd70      	pop	{r4, r5, r6, pc}

0800134c <TFT_vTrialLeft>:
 800134c:	b513      	push	{r0, r1, r4, lr}
 800134e:	4b08      	ldr	r3, [pc, #32]	; (8001370 <TFT_vTrialLeft+0x24>)
 8001350:	9300      	str	r3, [sp, #0]
 8001352:	4604      	mov	r4, r0
 8001354:	235f      	movs	r3, #95	; 0x5f
 8001356:	2246      	movs	r2, #70	; 0x46
 8001358:	2196      	movs	r1, #150	; 0x96
 800135a:	2050      	movs	r0, #80	; 0x50
 800135c:	f7ff fdb0 	bl	8000ec0 <TFT_vDrawPic>
 8001360:	4622      	mov	r2, r4
 8001362:	214b      	movs	r1, #75	; 0x4b
 8001364:	2096      	movs	r0, #150	; 0x96
 8001366:	b002      	add	sp, #8
 8001368:	e8bd 4010 	ldmia.w	sp!, {r4, lr}
 800136c:	f7ff bf5e 	b.w	800122c <TFT_vNumberAtPosition>
 8001370:	0802ae16 	.word	0x0802ae16

08001374 <UART6_vInit>:
 8001374:	4b09      	ldr	r3, [pc, #36]	; (800139c <UART6_vInit+0x28>)
 8001376:	2100      	movs	r1, #0
 8001378:	60d9      	str	r1, [r3, #12]
 800137a:	68da      	ldr	r2, [r3, #12]
 800137c:	f442 5200 	orr.w	r2, r2, #8192	; 0x2000
 8001380:	60da      	str	r2, [r3, #12]
 8001382:	f240 6283 	movw	r2, #1667	; 0x683
 8001386:	6099      	str	r1, [r3, #8]
 8001388:	609a      	str	r2, [r3, #8]
 800138a:	68da      	ldr	r2, [r3, #12]
 800138c:	f042 0208 	orr.w	r2, r2, #8
 8001390:	60da      	str	r2, [r3, #12]
 8001392:	68da      	ldr	r2, [r3, #12]
 8001394:	f042 0224 	orr.w	r2, r2, #36	; 0x24
 8001398:	60da      	str	r2, [r3, #12]
 800139a:	4770      	bx	lr
 800139c:	40011400 	.word	0x40011400

080013a0 <UART6_Callback>:
 80013a0:	4b01      	ldr	r3, [pc, #4]	; (80013a8 <UART6_Callback+0x8>)
 80013a2:	6018      	str	r0, [r3, #0]
 80013a4:	4770      	bx	lr
 80013a6:	bf00      	nop
 80013a8:	20001440 	.word	0x20001440

080013ac <USART6_IRQHandler>:
 80013ac:	4a04      	ldr	r2, [pc, #16]	; (80013c0 <USART6_IRQHandler+0x14>)
 80013ae:	4905      	ldr	r1, [pc, #20]	; (80013c4 <USART6_IRQHandler+0x18>)
 80013b0:	6853      	ldr	r3, [r2, #4]
 80013b2:	6809      	ldr	r1, [r1, #0]
 80013b4:	b2db      	uxtb	r3, r3
 80013b6:	700b      	strb	r3, [r1, #0]
 80013b8:	780b      	ldrb	r3, [r1, #0]
 80013ba:	b2db      	uxtb	r3, r3
 80013bc:	6053      	str	r3, [r2, #4]
 80013be:	4770      	bx	lr
 80013c0:	40011400 	.word	0x40011400
 80013c4:	20001440 	.word	0x20001440

080013c8 <strEqual>:
 80013c8:	b538      	push	{r3, r4, r5, lr}
 80013ca:	1e45      	subs	r5, r0, #1
 80013cc:	1e4c      	subs	r4, r1, #1
 80013ce:	f915 3f01 	ldrsb.w	r3, [r5, #1]!
 80013d2:	b923      	cbnz	r3, 80013de <strEqual+0x16>
 80013d4:	f994 3001 	ldrsb.w	r3, [r4, #1]
 80013d8:	b90b      	cbnz	r3, 80013de <strEqual+0x16>
 80013da:	2001      	movs	r0, #1
 80013dc:	bd38      	pop	{r3, r4, r5, pc}
 80013de:	2005      	movs	r0, #5
 80013e0:	f7ff fbc0 	bl	8000b64 <STK_DelayMs>
 80013e4:	f995 2000 	ldrsb.w	r2, [r5]
 80013e8:	f914 3f01 	ldrsb.w	r3, [r4, #1]!
 80013ec:	429a      	cmp	r2, r3
 80013ee:	d0ee      	beq.n	80013ce <strEqual+0x6>
 80013f0:	2000      	movs	r0, #0
 80013f2:	e7f3      	b.n	80013dc <strEqual+0x14>

080013f4 <BeebSound>:
 80013f4:	b508      	push	{r3, lr}
 80013f6:	2201      	movs	r2, #1
 80013f8:	2104      	movs	r1, #4
 80013fa:	2000      	movs	r0, #0
 80013fc:	f7ff f856 	bl	80004ac <GPIO_vWritePinValue>
 8001400:	2064      	movs	r0, #100	; 0x64
 8001402:	f7ff fbaf 	bl	8000b64 <STK_DelayMs>
 8001406:	2200      	movs	r2, #0
 8001408:	e8bd 4008 	ldmia.w	sp!, {r3, lr}
 800140c:	2104      	movs	r1, #4
 800140e:	4610      	mov	r0, r2
 8001410:	f7ff b84c 	b.w	80004ac <GPIO_vWritePinValue>

08001414 <WelcomeTap>:
 8001414:	e92d 43f8 	stmdb	sp!, {r3, r4, r5, r6, r7, r8, r9, lr}
 8001418:	4606      	mov	r6, r0
 800141a:	2001      	movs	r0, #1
 800141c:	f7ff fa86 	bl	800092c <LCD_enuWriteCommand>
 8001420:	2105      	movs	r1, #5
 8001422:	2001      	movs	r0, #1
 8001424:	f7ff fae6 	bl	80009f4 <LCD_enuGoToPosition>
 8001428:	485c      	ldr	r0, [pc, #368]	; (800159c <WelcomeTap+0x188>)
 800142a:	4d5d      	ldr	r5, [pc, #372]	; (80015a0 <WelcomeTap+0x18c>)
 800142c:	4c5d      	ldr	r4, [pc, #372]	; (80015a4 <WelcomeTap+0x190>)
 800142e:	f7ff faa9 	bl	8000984 <LCD_enuWriteString>
 8001432:	f7ff fe4f 	bl	80010d4 <TFT_vUserPanel>
 8001436:	f04f 0721 	mov.w	r7, #33	; 0x21
 800143a:	7820      	ldrb	r0, [r4, #0]
 800143c:	702f      	strb	r7, [r5, #0]
 800143e:	f7ff ff4f 	bl	80012e0 <TFT_vDrawTempValue>
 8001442:	4857      	ldr	r0, [pc, #348]	; (80015a0 <WelcomeTap+0x18c>)
 8001444:	f7ff f93c 	bl	80006c0 <Keypad_GetPressedKey>
 8001448:	782b      	ldrb	r3, [r5, #0]
 800144a:	2b21      	cmp	r3, #33	; 0x21
 800144c:	d0f5      	beq.n	800143a <WelcomeTap+0x26>
 800144e:	f1a3 0237 	sub.w	r2, r3, #55	; 0x37
 8001452:	2a02      	cmp	r2, #2
 8001454:	d907      	bls.n	8001466 <WelcomeTap+0x52>
 8001456:	2b2f      	cmp	r3, #47	; 0x2f
 8001458:	d112      	bne.n	8001480 <WelcomeTap+0x6c>
 800145a:	2000      	movs	r0, #0
 800145c:	2108      	movs	r1, #8
 800145e:	f7ff f885 	bl	800056c <GPIO_vTogglePinValue>
 8001462:	2004      	movs	r0, #4
 8001464:	e00a      	b.n	800147c <WelcomeTap+0x68>
 8001466:	3b38      	subs	r3, #56	; 0x38
 8001468:	2b01      	cmp	r3, #1
 800146a:	d802      	bhi.n	8001472 <WelcomeTap+0x5e>
 800146c:	e8df f003 	tbb	[pc, r3]
 8001470:	322c      	.short	0x322c
 8001472:	2000      	movs	r0, #0
 8001474:	2105      	movs	r1, #5
 8001476:	f7ff f879 	bl	800056c <GPIO_vTogglePinValue>
 800147a:	2001      	movs	r0, #1
 800147c:	f7ff fd5a 	bl	8000f34 <TFT_vToggle>
 8001480:	7829      	ldrb	r1, [r5, #0]
 8001482:	f1a1 0334 	sub.w	r3, r1, #52	; 0x34
 8001486:	2b01      	cmp	r3, #1
 8001488:	d80a      	bhi.n	80014a0 <WelcomeTap+0x8c>
 800148a:	4a47      	ldr	r2, [pc, #284]	; (80015a8 <WelcomeTap+0x194>)
 800148c:	2935      	cmp	r1, #53	; 0x35
 800148e:	7813      	ldrb	r3, [r2, #0]
 8001490:	d026      	beq.n	80014e0 <WelcomeTap+0xcc>
 8001492:	2bf9      	cmp	r3, #249	; 0xf9
 8001494:	d801      	bhi.n	800149a <WelcomeTap+0x86>
 8001496:	3332      	adds	r3, #50	; 0x32
 8001498:	7013      	strb	r3, [r2, #0]
 800149a:	7810      	ldrb	r0, [r2, #0]
 800149c:	f7ff fde0 	bl	8001060 <TFT_vControlDimmerLed>
 80014a0:	782b      	ldrb	r3, [r5, #0]
 80014a2:	f1a3 0231 	sub.w	r2, r3, #49	; 0x31
 80014a6:	2a01      	cmp	r2, #1
 80014a8:	d806      	bhi.n	80014b8 <WelcomeTap+0xa4>
 80014aa:	2b32      	cmp	r3, #50	; 0x32
 80014ac:	d01c      	beq.n	80014e8 <WelcomeTap+0xd4>
 80014ae:	2019      	movs	r0, #25
 80014b0:	f7fe ff44 	bl	800033c <Door_Control>
 80014b4:	f7ff fd84 	bl	8000fc0 <TFT_vDoorOpened>
 80014b8:	782b      	ldrb	r3, [r5, #0]
 80014ba:	2b43      	cmp	r3, #67	; 0x43
 80014bc:	d01a      	beq.n	80014f4 <WelcomeTap+0xe0>
 80014be:	2b30      	cmp	r3, #48	; 0x30
 80014c0:	d121      	bne.n	8001506 <WelcomeTap+0xf2>
 80014c2:	7823      	ldrb	r3, [r4, #0]
 80014c4:	3b01      	subs	r3, #1
 80014c6:	e017      	b.n	80014f8 <WelcomeTap+0xe4>
 80014c8:	2000      	movs	r0, #0
 80014ca:	2106      	movs	r1, #6
 80014cc:	f7ff f84e 	bl	800056c <GPIO_vTogglePinValue>
 80014d0:	2002      	movs	r0, #2
 80014d2:	e7d3      	b.n	800147c <WelcomeTap+0x68>
 80014d4:	2000      	movs	r0, #0
 80014d6:	2107      	movs	r1, #7
 80014d8:	f7ff f848 	bl	800056c <GPIO_vTogglePinValue>
 80014dc:	2003      	movs	r0, #3
 80014de:	e7cd      	b.n	800147c <WelcomeTap+0x68>
 80014e0:	2b00      	cmp	r3, #0
 80014e2:	d0da      	beq.n	800149a <WelcomeTap+0x86>
 80014e4:	3b32      	subs	r3, #50	; 0x32
 80014e6:	e7d7      	b.n	8001498 <WelcomeTap+0x84>
 80014e8:	207d      	movs	r0, #125	; 0x7d
 80014ea:	f7fe ff27 	bl	800033c <Door_Control>
 80014ee:	f7ff fd75 	bl	8000fdc <TFT_vDoorClosed>
 80014f2:	e7e1      	b.n	80014b8 <WelcomeTap+0xa4>
 80014f4:	7823      	ldrb	r3, [r4, #0]
 80014f6:	3301      	adds	r3, #1
 80014f8:	7023      	strb	r3, [r4, #0]
 80014fa:	7820      	ldrb	r0, [r4, #0]
 80014fc:	f7fe fe98 	bl	8000230 <AC_AdjustTemperature>
 8001500:	7820      	ldrb	r0, [r4, #0]
 8001502:	f7ff feed 	bl	80012e0 <TFT_vDrawTempValue>
 8001506:	782b      	ldrb	r3, [r5, #0]
 8001508:	2b3d      	cmp	r3, #61	; 0x3d
 800150a:	d103      	bne.n	8001514 <WelcomeTap+0x100>
 800150c:	e8bd 43f8 	ldmia.w	sp!, {r3, r4, r5, r6, r7, r8, r9, lr}
 8001510:	f7ff bf70 	b.w	80013f4 <BeebSound>
 8001514:	2b2b      	cmp	r3, #43	; 0x2b
 8001516:	d18e      	bne.n	8001436 <WelcomeTap+0x22>
 8001518:	2400      	movs	r4, #0
 800151a:	f7ff ff6b 	bl	80013f4 <BeebSound>
 800151e:	2001      	movs	r0, #1
 8001520:	7034      	strb	r4, [r6, #0]
 8001522:	7074      	strb	r4, [r6, #1]
 8001524:	70b4      	strb	r4, [r6, #2]
 8001526:	70f4      	strb	r4, [r6, #3]
 8001528:	f7ff fa00 	bl	800092c <LCD_enuWriteCommand>
 800152c:	2101      	movs	r1, #1
 800152e:	4608      	mov	r0, r1
 8001530:	f7ff fa60 	bl	80009f4 <LCD_enuGoToPosition>
 8001534:	481d      	ldr	r0, [pc, #116]	; (80015ac <WelcomeTap+0x198>)
 8001536:	f8df 9068 	ldr.w	r9, [pc, #104]	; 80015a0 <WelcomeTap+0x18c>
 800153a:	4f1d      	ldr	r7, [pc, #116]	; (80015b0 <WelcomeTap+0x19c>)
 800153c:	f7ff fa22 	bl	8000984 <LCD_enuWriteString>
 8001540:	2101      	movs	r1, #1
 8001542:	2002      	movs	r0, #2
 8001544:	f7ff fa56 	bl	80009f4 <LCD_enuGoToPosition>
 8001548:	f7ff fe22 	bl	8001190 <TFT_vChangePasswordPanel>
 800154c:	f04f 0821 	mov.w	r8, #33	; 0x21
 8001550:	4648      	mov	r0, r9
 8001552:	f885 8000 	strb.w	r8, [r5]
 8001556:	f7ff f8b3 	bl	80006c0 <Keypad_GetPressedKey>
 800155a:	782b      	ldrb	r3, [r5, #0]
 800155c:	2b21      	cmp	r3, #33	; 0x21
 800155e:	d0f7      	beq.n	8001550 <WelcomeTap+0x13c>
 8001560:	f1a3 0230 	sub.w	r2, r3, #48	; 0x30
 8001564:	2a09      	cmp	r2, #9
 8001566:	d80f      	bhi.n	8001588 <WelcomeTap+0x174>
 8001568:	f7ff ff44 	bl	80013f4 <BeebSound>
 800156c:	202a      	movs	r0, #42	; 0x2a
 800156e:	f7ff f9f3 	bl	8000958 <LCD_enuWriteData>
 8001572:	7838      	ldrb	r0, [r7, #0]
 8001574:	f7ff fdf2 	bl	800115c <TFT_vDrawPassword>
 8001578:	782b      	ldrb	r3, [r5, #0]
 800157a:	5533      	strb	r3, [r6, r4]
 800157c:	783b      	ldrb	r3, [r7, #0]
 800157e:	3401      	adds	r4, #1
 8001580:	3301      	adds	r3, #1
 8001582:	b2e4      	uxtb	r4, r4
 8001584:	703b      	strb	r3, [r7, #0]
 8001586:	e7e3      	b.n	8001550 <WelcomeTap+0x13c>
 8001588:	2b3d      	cmp	r3, #61	; 0x3d
 800158a:	d1e1      	bne.n	8001550 <WelcomeTap+0x13c>
 800158c:	f7ff ff32 	bl	80013f4 <BeebSound>
 8001590:	4b07      	ldr	r3, [pc, #28]	; (80015b0 <WelcomeTap+0x19c>)
 8001592:	2201      	movs	r2, #1
 8001594:	701a      	strb	r2, [r3, #0]
 8001596:	e8bd 83f8 	ldmia.w	sp!, {r3, r4, r5, r6, r7, r8, r9, pc}
 800159a:	bf00      	nop
 800159c:	080018c0 	.word	0x080018c0
 80015a0:	20001361 	.word	0x20001361
 80015a4:	20001362 	.word	0x20001362
 80015a8:	20001444 	.word	0x20001444
 80015ac:	080018ca 	.word	0x080018ca
 80015b0:	20001360 	.word	0x20001360

080015b4 <Buzzer_TOG>:
 80015b4:	b508      	push	{r3, lr}
 80015b6:	2104      	movs	r1, #4
 80015b8:	2000      	movs	r0, #0
 80015ba:	f7fe ffd7 	bl	800056c <GPIO_vTogglePinValue>
 80015be:	f44f 70fa 	mov.w	r0, #500	; 0x1f4
 80015c2:	f7ff facf 	bl	8000b64 <STK_DelayMs>
 80015c6:	e7f6      	b.n	80015b6 <Buzzer_TOG+0x2>

080015c8 <WrongTap>:
 80015c8:	b510      	push	{r4, lr}
 80015ca:	7803      	ldrb	r3, [r0, #0]
 80015cc:	2b01      	cmp	r3, #1
 80015ce:	4604      	mov	r4, r0
 80015d0:	d91e      	bls.n	8001610 <WrongTap+0x48>
 80015d2:	3b01      	subs	r3, #1
 80015d4:	7003      	strb	r3, [r0, #0]
 80015d6:	2001      	movs	r0, #1
 80015d8:	f7ff f9a8 	bl	800092c <LCD_enuWriteCommand>
 80015dc:	2105      	movs	r1, #5
 80015de:	2001      	movs	r0, #1
 80015e0:	f7ff fa08 	bl	80009f4 <LCD_enuGoToPosition>
 80015e4:	480f      	ldr	r0, [pc, #60]	; (8001624 <WrongTap+0x5c>)
 80015e6:	f7ff f9cd 	bl	8000984 <LCD_enuWriteString>
 80015ea:	2101      	movs	r1, #1
 80015ec:	2002      	movs	r0, #2
 80015ee:	f7ff fa01 	bl	80009f4 <LCD_enuGoToPosition>
 80015f2:	7820      	ldrb	r0, [r4, #0]
 80015f4:	f7ff f9d4 	bl	80009a0 <LCD_enuWriteIntegerNum>
 80015f8:	480b      	ldr	r0, [pc, #44]	; (8001628 <WrongTap+0x60>)
 80015fa:	f7ff f9c3 	bl	8000984 <LCD_enuWriteString>
 80015fe:	7820      	ldrb	r0, [r4, #0]
 8001600:	f7ff fea4 	bl	800134c <TFT_vTrialLeft>
 8001604:	e8bd 4010 	ldmia.w	sp!, {r4, lr}
 8001608:	f44f 70fa 	mov.w	r0, #500	; 0x1f4
 800160c:	f7ff baaa 	b.w	8000b64 <STK_DelayMs>
 8001610:	2001      	movs	r0, #1
 8001612:	f7ff f98b 	bl	800092c <LCD_enuWriteCommand>
 8001616:	4805      	ldr	r0, [pc, #20]	; (800162c <WrongTap+0x64>)
 8001618:	f7ff f9b4 	bl	8000984 <LCD_enuWriteString>
 800161c:	f7ff fdd4 	bl	80011c8 <TFT_vPolicePanel>
 8001620:	f7ff ffc8 	bl	80015b4 <Buzzer_TOG>
 8001624:	080018db 	.word	0x080018db
 8001628:	080018e3 	.word	0x080018e3
 800162c:	080018f1 	.word	0x080018f1

08001630 <PasswordTap>:
 8001630:	b570      	push	{r4, r5, r6, lr}
 8001632:	4c2a      	ldr	r4, [pc, #168]	; (80016dc <PasswordTap+0xac>)
 8001634:	2321      	movs	r3, #33	; 0x21
 8001636:	4605      	mov	r5, r0
 8001638:	2001      	movs	r0, #1
 800163a:	7023      	strb	r3, [r4, #0]
 800163c:	460e      	mov	r6, r1
 800163e:	f7ff fa91 	bl	8000b64 <STK_DelayMs>
 8001642:	4620      	mov	r0, r4
 8001644:	f7ff f83c 	bl	80006c0 <Keypad_GetPressedKey>
 8001648:	7823      	ldrb	r3, [r4, #0]
 800164a:	2b21      	cmp	r3, #33	; 0x21
 800164c:	d015      	beq.n	800167a <PasswordTap+0x4a>
 800164e:	f1a3 0230 	sub.w	r2, r3, #48	; 0x30
 8001652:	2a09      	cmp	r2, #9
 8001654:	d812      	bhi.n	800167c <PasswordTap+0x4c>
 8001656:	4d22      	ldr	r5, [pc, #136]	; (80016e0 <PasswordTap+0xb0>)
 8001658:	f7ff fecc 	bl	80013f4 <BeebSound>
 800165c:	202a      	movs	r0, #42	; 0x2a
 800165e:	f7ff f97b 	bl	8000958 <LCD_enuWriteData>
 8001662:	7828      	ldrb	r0, [r5, #0]
 8001664:	3001      	adds	r0, #1
 8001666:	b2c0      	uxtb	r0, r0
 8001668:	f7ff fd78 	bl	800115c <TFT_vDrawPassword>
 800166c:	f995 3000 	ldrsb.w	r3, [r5]
 8001670:	4a1c      	ldr	r2, [pc, #112]	; (80016e4 <PasswordTap+0xb4>)
 8001672:	7821      	ldrb	r1, [r4, #0]
 8001674:	54d1      	strb	r1, [r2, r3]
 8001676:	3301      	adds	r3, #1
 8001678:	702b      	strb	r3, [r5, #0]
 800167a:	bd70      	pop	{r4, r5, r6, pc}
 800167c:	2b3d      	cmp	r3, #61	; 0x3d
 800167e:	d1fc      	bne.n	800167a <PasswordTap+0x4a>
 8001680:	f7ff feb8 	bl	80013f4 <BeebSound>
 8001684:	4817      	ldr	r0, [pc, #92]	; (80016e4 <PasswordTap+0xb4>)
 8001686:	4c17      	ldr	r4, [pc, #92]	; (80016e4 <PasswordTap+0xb4>)
 8001688:	4629      	mov	r1, r5
 800168a:	f7ff fe9d 	bl	80013c8 <strEqual>
 800168e:	2801      	cmp	r0, #1
 8001690:	d11a      	bne.n	80016c8 <PasswordTap+0x98>
 8001692:	4628      	mov	r0, r5
 8001694:	f7ff febe 	bl	8001414 <WelcomeTap>
 8001698:	4b13      	ldr	r3, [pc, #76]	; (80016e8 <PasswordTap+0xb8>)
 800169a:	2203      	movs	r2, #3
 800169c:	701a      	strb	r2, [r3, #0]
 800169e:	2300      	movs	r3, #0
 80016a0:	4a0f      	ldr	r2, [pc, #60]	; (80016e0 <PasswordTap+0xb0>)
 80016a2:	7023      	strb	r3, [r4, #0]
 80016a4:	7063      	strb	r3, [r4, #1]
 80016a6:	70a3      	strb	r3, [r4, #2]
 80016a8:	70e3      	strb	r3, [r4, #3]
 80016aa:	2001      	movs	r0, #1
 80016ac:	7013      	strb	r3, [r2, #0]
 80016ae:	f7ff f93d 	bl	800092c <LCD_enuWriteCommand>
 80016b2:	480e      	ldr	r0, [pc, #56]	; (80016ec <PasswordTap+0xbc>)
 80016b4:	f7ff f966 	bl	8000984 <LCD_enuWriteString>
 80016b8:	2101      	movs	r1, #1
 80016ba:	2002      	movs	r0, #2
 80016bc:	f7ff f99a 	bl	80009f4 <LCD_enuGoToPosition>
 80016c0:	e8bd 4070 	ldmia.w	sp!, {r4, r5, r6, lr}
 80016c4:	f7ff bd52 	b.w	800116c <TFT_vPasswordPanel>
 80016c8:	4631      	mov	r1, r6
 80016ca:	4620      	mov	r0, r4
 80016cc:	f7ff fe7c 	bl	80013c8 <strEqual>
 80016d0:	2801      	cmp	r0, #1
 80016d2:	d0de      	beq.n	8001692 <PasswordTap+0x62>
 80016d4:	4804      	ldr	r0, [pc, #16]	; (80016e8 <PasswordTap+0xb8>)
 80016d6:	f7ff ff77 	bl	80015c8 <WrongTap>
 80016da:	e7e0      	b.n	800169e <PasswordTap+0x6e>
 80016dc:	20001361 	.word	0x20001361
 80016e0:	20001449 	.word	0x20001449
 80016e4:	20001445 	.word	0x20001445
 80016e8:	20001363 	.word	0x20001363
 80016ec:	08001903 	.word	0x08001903

080016f0 <main>:
 80016f0:	b507      	push	{r0, r1, r2, lr}
 80016f2:	f7ff f9a7 	bl	8000a44 <RCC_vInitSystemCLK>
 80016f6:	2100      	movs	r1, #0
 80016f8:	4608      	mov	r0, r1
 80016fa:	f7ff f9b7 	bl	8000a6c <RCC_vEnableClock>
 80016fe:	2103      	movs	r1, #3
 8001700:	2000      	movs	r0, #0
 8001702:	f7ff f9b3 	bl	8000a6c <RCC_vEnableClock>
 8001706:	2101      	movs	r1, #1
 8001708:	2000      	movs	r0, #0
 800170a:	f7ff f9af 	bl	8000a6c <RCC_vEnableClock>
 800170e:	210e      	movs	r1, #14
 8001710:	2002      	movs	r0, #2
 8001712:	f7ff f9ab 	bl	8000a6c <RCC_vEnableClock>
 8001716:	2000      	movs	r0, #0
 8001718:	f7ff f9fa 	bl	8000b10 <STK_Init>
 800171c:	f7ff f9c6 	bl	8000aac <MSPI_VidInit>
 8001720:	f7ff f89d 	bl	800085e <LCD_enuInit>
 8001724:	200c      	movs	r0, #12
 8001726:	f7ff f901 	bl	800092c <LCD_enuWriteCommand>
 800172a:	f7ff fb71 	bl	8000e10 <TFT_voidInit>
 800172e:	f7fe ff73 	bl	8000618 <KEYPAD_enuInit>
 8001732:	f7fe fdfd 	bl	8000330 <Door_Init>
 8001736:	4b2d      	ldr	r3, [pc, #180]	; (80017ec <main+0xfc>)
 8001738:	7818      	ldrb	r0, [r3, #0]
 800173a:	f7fe fd79 	bl	8000230 <AC_AdjustTemperature>
 800173e:	f7fe fd53 	bl	80001e8 <AC_Init>
 8001742:	2201      	movs	r2, #1
 8001744:	2109      	movs	r1, #9
 8001746:	2000      	movs	r0, #0
 8001748:	f7fe fe24 	bl	8000394 <GPIO_vSetMode>
 800174c:	2200      	movs	r2, #0
 800174e:	4610      	mov	r0, r2
 8001750:	2109      	movs	r1, #9
 8001752:	f7fe feab 	bl	80004ac <GPIO_vWritePinValue>
 8001756:	4826      	ldr	r0, [pc, #152]	; (80017f0 <main+0x100>)
 8001758:	f7fe ff58 	bl	800060c <HC05_SetInputReading>
 800175c:	f7fe ff30 	bl	80005c0 <HC05_Init>
 8001760:	2201      	movs	r2, #1
 8001762:	2105      	movs	r1, #5
 8001764:	2000      	movs	r0, #0
 8001766:	f7fe fe15 	bl	8000394 <GPIO_vSetMode>
 800176a:	2200      	movs	r2, #0
 800176c:	4610      	mov	r0, r2
 800176e:	2105      	movs	r1, #5
 8001770:	f7fe fe9c 	bl	80004ac <GPIO_vWritePinValue>
 8001774:	2201      	movs	r2, #1
 8001776:	2106      	movs	r1, #6
 8001778:	2000      	movs	r0, #0
 800177a:	f7fe fe0b 	bl	8000394 <GPIO_vSetMode>
 800177e:	2200      	movs	r2, #0
 8001780:	4610      	mov	r0, r2
 8001782:	2106      	movs	r1, #6
 8001784:	f7fe fe92 	bl	80004ac <GPIO_vWritePinValue>
 8001788:	2201      	movs	r2, #1
 800178a:	2107      	movs	r1, #7
 800178c:	2000      	movs	r0, #0
 800178e:	f7fe fe01 	bl	8000394 <GPIO_vSetMode>
 8001792:	2200      	movs	r2, #0
 8001794:	4610      	mov	r0, r2
 8001796:	2107      	movs	r1, #7
 8001798:	f7fe fe88 	bl	80004ac <GPIO_vWritePinValue>
 800179c:	2201      	movs	r2, #1
 800179e:	2108      	movs	r1, #8
 80017a0:	2000      	movs	r0, #0
 80017a2:	f7fe fdf7 	bl	8000394 <GPIO_vSetMode>
 80017a6:	2200      	movs	r2, #0
 80017a8:	4610      	mov	r0, r2
 80017aa:	2108      	movs	r1, #8
 80017ac:	f7fe fe7e 	bl	80004ac <GPIO_vWritePinValue>
 80017b0:	2201      	movs	r2, #1
 80017b2:	2104      	movs	r1, #4
 80017b4:	2000      	movs	r0, #0
 80017b6:	f7fe fded 	bl	8000394 <GPIO_vSetMode>
 80017ba:	2200      	movs	r2, #0
 80017bc:	4610      	mov	r0, r2
 80017be:	2104      	movs	r1, #4
 80017c0:	f7fe fe74 	bl	80004ac <GPIO_vWritePinValue>
 80017c4:	4b0b      	ldr	r3, [pc, #44]	; (80017f4 <main+0x104>)
 80017c6:	2001      	movs	r0, #1
 80017c8:	e9cd 3300 	strd	r3, r3, [sp]
 80017cc:	f7ff f8ae 	bl	800092c <LCD_enuWriteCommand>
 80017d0:	4809      	ldr	r0, [pc, #36]	; (80017f8 <main+0x108>)
 80017d2:	f7ff f8d7 	bl	8000984 <LCD_enuWriteString>
 80017d6:	2101      	movs	r1, #1
 80017d8:	2002      	movs	r0, #2
 80017da:	f7ff f90b 	bl	80009f4 <LCD_enuGoToPosition>
 80017de:	f7ff fcc5 	bl	800116c <TFT_vPasswordPanel>
 80017e2:	a901      	add	r1, sp, #4
 80017e4:	4668      	mov	r0, sp
 80017e6:	f7ff ff23 	bl	8001630 <PasswordTap>
 80017ea:	e7fa      	b.n	80017e2 <main+0xf2>
 80017ec:	20001362 	.word	0x20001362
 80017f0:	20001361 	.word	0x20001361
 80017f4:	00303130 	.word	0x00303130
 80017f8:	08001903 	.word	0x08001903

080017fc <Reset_Handler>:
 80017fc:	480d      	ldr	r0, [pc, #52]	; (8001834 <LoopForever+0x2>)
 80017fe:	4685      	mov	sp, r0
 8001800:	f3af 8000 	nop.w
 8001804:	480c      	ldr	r0, [pc, #48]	; (8001838 <LoopForever+0x6>)
 8001806:	490d      	ldr	r1, [pc, #52]	; (800183c <LoopForever+0xa>)
 8001808:	4a0d      	ldr	r2, [pc, #52]	; (8001840 <LoopForever+0xe>)
 800180a:	2300      	movs	r3, #0
 800180c:	e002      	b.n	8001814 <LoopCopyDataInit>

0800180e <CopyDataInit>:
 800180e:	58d4      	ldr	r4, [r2, r3]
 8001810:	50c4      	str	r4, [r0, r3]
 8001812:	3304      	adds	r3, #4

08001814 <LoopCopyDataInit>:
 8001814:	18c4      	adds	r4, r0, r3
 8001816:	428c      	cmp	r4, r1
 8001818:	d3f9      	bcc.n	800180e <CopyDataInit>
 800181a:	4a0a      	ldr	r2, [pc, #40]	; (8001844 <LoopForever+0x12>)
 800181c:	4c0a      	ldr	r4, [pc, #40]	; (8001848 <LoopForever+0x16>)
 800181e:	2300      	movs	r3, #0
 8001820:	e001      	b.n	8001826 <LoopFillZerobss>

08001822 <FillZerobss>:
 8001822:	6013      	str	r3, [r2, #0]
 8001824:	3204      	adds	r2, #4

08001826 <LoopFillZerobss>:
 8001826:	42a2      	cmp	r2, r4
 8001828:	d3fb      	bcc.n	8001822 <FillZerobss>
 800182a:	f000 f811 	bl	8001850 <__libc_init_array>
 800182e:	f7ff ff5f 	bl	80016f0 <main>

08001832 <LoopForever>:
 8001832:	e7fe      	b.n	8001832 <LoopForever>
 8001834:	20018000 	.word	0x20018000
 8001838:	20000000 	.word	0x20000000
 800183c:	20001364 	.word	0x20001364
 8001840:	0802bbfc 	.word	0x0802bbfc
 8001844:	20001364 	.word	0x20001364
 8001848:	2000144c 	.word	0x2000144c

0800184c <BusFault_Handler>:
 800184c:	e7fe      	b.n	800184c <BusFault_Handler>
	...

08001850 <__libc_init_array>:
 8001850:	b570      	push	{r4, r5, r6, lr}
 8001852:	4d0d      	ldr	r5, [pc, #52]	; (8001888 <__libc_init_array+0x38>)
 8001854:	4c0d      	ldr	r4, [pc, #52]	; (800188c <__libc_init_array+0x3c>)
 8001856:	1b64      	subs	r4, r4, r5
 8001858:	10a4      	asrs	r4, r4, #2
 800185a:	2600      	movs	r6, #0
 800185c:	42a6      	cmp	r6, r4
 800185e:	d109      	bne.n	8001874 <__libc_init_array+0x24>
 8001860:	4d0b      	ldr	r5, [pc, #44]	; (8001890 <__libc_init_array+0x40>)
 8001862:	4c0c      	ldr	r4, [pc, #48]	; (8001894 <__libc_init_array+0x44>)
 8001864:	f000 f818 	bl	8001898 <_init>
 8001868:	1b64      	subs	r4, r4, r5
 800186a:	10a4      	asrs	r4, r4, #2
 800186c:	2600      	movs	r6, #0
 800186e:	42a6      	cmp	r6, r4
 8001870:	d105      	bne.n	800187e <__libc_init_array+0x2e>
 8001872:	bd70      	pop	{r4, r5, r6, pc}
 8001874:	f855 3b04 	ldr.w	r3, [r5], #4
 8001878:	4798      	blx	r3
 800187a:	3601      	adds	r6, #1
 800187c:	e7ee      	b.n	800185c <__libc_init_array+0xc>
 800187e:	f855 3b04 	ldr.w	r3, [r5], #4
 8001882:	4798      	blx	r3
 8001884:	3601      	adds	r6, #1
 8001886:	e7f2      	b.n	800186e <__libc_init_array+0x1e>
 8001888:	0802bbf4 	.word	0x0802bbf4
 800188c:	0802bbf4 	.word	0x0802bbf4
 8001890:	0802bbf4 	.word	0x0802bbf4
 8001894:	0802bbf8 	.word	0x0802bbf8

08001898 <_init>:
 8001898:	b5f8      	push	{r3, r4, r5, r6, r7, lr}
 800189a:	bf00      	nop
 800189c:	bcf8      	pop	{r3, r4, r5, r6, r7}
 800189e:	bc08      	pop	{r3}
 80018a0:	469e      	mov	lr, r3
 80018a2:	4770      	bx	lr

080018a4 <_fini>:
 80018a4:	b5f8      	push	{r3, r4, r5, r6, r7, lr}
 80018a6:	bf00      	nop
 80018a8:	bcf8      	pop	{r3, r4, r5, r6, r7}
 80018aa:	bc08      	pop	{r3}
 80018ac:	469e      	mov	lr, r3
 80018ae:	4770      	bx	lr
